(dp0
I1
(dp1
S'data_time'
p2
F0.6342771053314209
sS'mse'
p3
cnumpy.core.multiarray
scalar
p4
(cnumpy
dtype
p5
(S'f8'
p6
I0
I1
tp7
Rp8
(I3
S'<'
p9
NNNI-1
I-1
I0
tp10
bS'\x94]\xb2O\xdf,\xd9?'
p11
tp12
Rp13
sS'name'
p14
S'Dinosaur Planet (2003)'
p15
sS'r2'
p16
g4
(g8
S'\xbb\xce0p\x9f\xae\xe3?'
p17
tp18
Rp19
sS'regr_time'
p20
F1.5264229774475098
ssI2
(dp21
g2
F0.5455231666564941
sg3
g4
(g8
S'\x83\xe7\x7f\xee\xa6\x87\xf1?'
p22
tp23
Rp24
sg14
S'Isle of Man TT 2004 Review (2004)'
p25
sg16
g4
(g8
S'\xd2\xa5F\x05Jq\xd7?'
p26
tp27
Rp28
sg20
F2.2116971015930176
ssI3
(dp29
g2
F0.5648469924926758
sg3
g4
(g8
S'\x146\x90:Ic\xe5?'
p30
tp31
Rp32
sg14
S'Character (1997)'
p33
sg16
g4
(g8
S'|\xe9&\xa3~L\xc7?'
p34
tp35
Rp36
sg20
F1.5366389751434326
ssI4
(dp37
g2
F0.5144610404968262
sg3
g4
(g8
S'N\xbe1\x82B\xd9\xfd?'
p38
tp39
Rp40
sg14
S"Paula Abdul's Get Up & Dance (1994)"
p41
sg16
g4
(g8
S'\xa0}\xfa\x8d\xfa\x08\xd2\xbf'
p42
tp43
Rp44
sg20
F2.528869867324829
ssI5
(dp45
g2
F0.5669569969177246
sg3
g4
(g8
S'.\xd8\xe4gJ\xa8\xf5?'
p46
tp47
Rp48
sg14
S'The Rise and Fall of ECW (2004)'
p49
sg16
g4
(g8
S'\xe6B,Se\xd9\xd4?'
p50
tp51
Rp52
sg20
F1.5093259811401367
ssI6
(dp53
g2
F0.5802030563354492
sg3
g4
(g8
S'.\xf0\xac\xd1*\x9f\xeb?'
p54
tp55
Rp56
sg14
S'Sick (1997)'
p57
sg16
g4
(g8
S'\n\xc4"\xa3 \xdd\xd7?'
p58
tp59
Rp60
sg20
F1.5511322021484375
ssI7
(dp61
g2
F0.5671639442443848
sg3
g4
(g8
S'\xcaC\xc43\xe0\x99\xf0?'
p62
tp63
Rp64
sg14
S'8 Man (1992)'
p65
sg16
g4
(g8
S'P0W@\xd2&\xae?'
p66
tp67
Rp68
sg20
F0.954413890838623
ssI8
(dp69
g2
F0.8309850692749023
sg3
g4
(g8
S'\x92\xa0G\x1et?\x05@'
p70
tp71
Rp72
sg14
S'What the #$*! Do We Know!? (2004)'
p73
sg16
g4
(g8
S'\x88 \xba\xb2\\E\xd4\xbf'
p74
tp75
Rp76
sg20
F1.5876498222351074
ssI9
(dp77
g2
F0.5465071201324463
sg3
g4
(g8
S't\xb7\xc5\x10\xael\xfa?'
p78
tp79
Rp80
sg14
S"Class of Nuke 'Em High 2 (1991)"
p81
sg16
g4
(g8
S'\x00\xb5\rOc\x15}\xbf'
p82
tp83
Rp84
sg20
F1.2373998165130615
ssI10
(dp85
g2
F0.5328600406646729
sg3
g4
(g8
S'\xf3\x81\xa1\xd6a\xbd\xed?'
p86
tp87
Rp88
sg14
S'Fighter (2001)'
p89
sg16
g4
(g8
S'0 \xa5\x1b\xbaB\xa9?'
p90
tp91
Rp92
sg20
F8.337857961654663
ssI11
(dp93
g2
F0.48700404167175293
sg3
g4
(g8
S'b0\xd9\x14\xc7\x8d\xf3?'
p94
tp95
Rp96
sg14
S'Full Frame: Documentary Shorts (1999)'
p97
sg16
g4
(g8
S'\xa8\x9c\x89\xc6C@\xb8?'
p98
tp99
Rp100
sg20
F4.309499979019165
ssI12
(dp101
g2
F0.60915207862854
sg3
g4
(g8
S'10\x80\x1a\xb0q\xdb?'
p102
tp103
Rp104
sg14
S'My Favorite Brunette (1947)'
p105
sg16
g4
(g8
S',\x1a|\x0f\xea\xbf\xe2?'
p106
tp107
Rp108
sg20
F1.5512259006500244
ssI13
(dp109
g2
F0.5031430721282959
sg3
g4
(g8
S'\xcd\x1d\x88\x9f\x82\xa0\xd6?'
p110
tp111
Rp112
sg14
S'Lord of the Rings: The Return of the King: Extended Edition: Bonus Material (2003)'
p113
sg16
g4
(g8
S'\x84y\xe7x\xe4\xc8\xd1?'
p114
tp115
Rp116
sg20
F1.8670129776000977
ssI14
(dp117
g2
F0.8833050727844238
sg3
g4
(g8
S'\x93e\x0f\x11&\xa7\xf4?'
p118
tp119
Rp120
sg14
S'Nature: Antarctica (1982)'
p121
sg16
g4
(g8
S'\x94\xc0\xf1((\x91\xe1\xbf'
p122
tp123
Rp124
sg20
F1.5929419994354248
ssI15
(dp125
g2
F0.5746250152587891
sg3
g4
(g8
S'4\x01m\x893\xf1\xfa?'
p126
tp127
Rp128
sg14
S'Neil Diamond: Greatest Hits Live (1988)'
p129
sg16
g4
(g8
S'8l\xca\xbb+@\xcf\xbf'
p130
tp131
Rp132
sg20
F10.896634101867676
ssI16
(dp133
g2
F0.6516799926757812
sg3
g4
(g8
S'\xf2\x0eN\xe7@x\xf1?'
p134
tp135
Rp136
sg14
S'Screamers (1996)'
p137
sg16
g4
(g8
S'PJ\xaf`\tg\xab?'
p138
tp139
Rp140
sg20
F1.6592700481414795
ssI17
(dp141
g2
F0.6670570373535156
sg3
g4
(g8
S'TV\xd6n1\x8f\xf9?'
p142
tp143
Rp144
sg14
S'7 Seconds (2005)'
p145
sg16
g4
(g8
S' \xc0\xc7\x8aaF\xeb\xbf'
p146
tp147
Rp148
sg20
F1.6514699459075928
ssI18
(dp149
g2
F0.581183910369873
sg3
g4
(g8
S'\xedV0y)\xde\xeb?'
p150
tp151
Rp152
sg14
S'Immortal Beloved (1994)'
p153
sg16
g4
(g8
S'\x80p\xed\xc9\x9a\xc7\x87?'
p154
tp155
Rp156
sg20
F1.5739989280700684
ssI19
(dp157
g2
F0.6111819744110107
sg3
g4
(g8
S'\x8f>\xea\x1e\x19\xed\xe7?'
p158
tp159
Rp160
sg14
S"By Dawn's Early Light (2000)"
p161
sg16
g4
(g8
S"\xf5*\xa5E^'\xe1?"
p162
tp163
Rp164
sg20
F1.4749360084533691
ssI20
(dp165
g2
F0.5140390396118164
sg3
g4
(g8
S'z\xd1)a\xc2\xa0\xf1?'
p166
tp167
Rp168
sg14
S'Seeta Aur Geeta (1972)'
p169
sg16
g4
(g8
S'\x88&<\xb2\x01\xdc\xc7?'
p170
tp171
Rp172
sg20
F1.5029401779174805
ss.