(dp0
I1
(dp1
S'data_time'
p2
F0.8595390319824219
sS'r2'
p3
cnumpy.core.multiarray
scalar
p4
(cnumpy
dtype
p5
(S'f8'
p6
I0
I1
tp7
Rp8
(I3
S'<'
p9
NNNI-1
I-1
I0
tp10
bS'\x08\xe23\x83\xf8%\xc5\xbf'
p11
tp12
Rp13
sS'regr_time'
p14
F0.7154309749603271
sS'mse'
p15
g4
(g8
S'z\xa1 e+\x15\xf2?'
p16
tp17
Rp18
sS'id'
p19
I1
sS'name'
p20
S'Dinosaur Planet (2003)'
p21
ssI2
(dp22
S'data_time'
p23
F0.6854560375213623
sS'r2'
p24
g4
(g8
S'*\xbd3B\xb9f\xd7?'
p25
tp26
Rp27
sS'regr_time'
p28
F0.42963290214538574
sS'mse'
p29
g4
(g8
S'\x8dCS\xfe7\x8c\xf1?'
p30
tp31
Rp32
sS'id'
p33
I2
sS'name'
p34
S'Isle of Man TT 2004 Review (2004)'
p35
ssI3
(dp36
S'data_time'
p37
F4.449173927307129
sS'r2'
p38
g4
(g8
S'\x94r\xddc\x93=\xc4?'
p39
tp40
Rp41
sS'regr_time'
p42
F0.669687032699585
sS'mse'
p43
g4
(g8
S'1\xa8\x12\x8e\r@\xea?'
p44
tp45
Rp46
sS'id'
p47
I3
sS'name'
p48
S'Character (1997)'
p49
ssI4
(dp50
S'data_time'
p51
F0.6013269424438477
sS'r2'
p52
g4
(g8
S'\xfc\x83\xce\xde\xdf \xd2\xbf'
p53
tp54
Rp55
sS'regr_time'
p56
F0.3898448944091797
sS'mse'
p57
g4
(g8
S'U\r>O\xf4\xe1\xfd?'
p58
tp59
Rp60
sS'id'
p61
I4
sS'name'
p62
S"Paula Abdul's Get Up & Dance (1994)"
p63
ssI5
(dp64
S'data_time'
p65
F1.2912988662719727
sS'r2'
p66
g4
(g8
S'&~\x8d\xff\x93\xa6\xdb?'
p67
tp68
Rp69
sS'regr_time'
p70
F1.018143892288208
sS'mse'
p71
g4
(g8
S'8\t\xd2\xb7\xdf\x18\xed?'
p72
tp73
Rp74
sS'id'
p75
I5
sS'name'
p76
S'The Rise and Fall of ECW (2004)'
p77
ssI6
(dp78
S'data_time'
p79
F3.4259490966796875
sS'r2'
p80
g4
(g8
S'9\x1e\xbb\xb3?\r\xe2?'
p81
tp82
Rp83
sS'regr_time'
p84
F0.3524010181427002
sS'mse'
p85
g4
(g8
S'\xad\xff\x10\xc0\x0c\xab\xe4?'
p86
tp87
Rp88
sS'id'
p89
I6
sS'name'
p90
S'Sick (1997)'
p91
ssI7
(dp92
S'data_time'
p93
F0.6601450443267822
sS'r2'
p94
g4
(g8
S'@\x87\x12=9\xcb\xac?'
p95
tp96
Rp97
sS'regr_time'
p98
F0.4171631336212158
sS'mse'
p99
g4
(g8
S'A;\xa6\xfe\xd9\xa5\xf0?'
p100
tp101
Rp102
sS'id'
p103
I7
sS'name'
p104
S'8 Man (1992)'
p105
ssI8
(dp106
S'data_time'
p107
F1.1036431789398193
sS'r2'
p108
g4
(g8
S'\xe2P\x11\xf3\xaa\x1a\xe0\xbf'
p109
tp110
Rp111
sS'regr_time'
p112
F1.1351768970489502
sS'mse'
p113
g4
(g8
S'S\xaf\x17\x06\x86\xa5\x05@'
p114
tp115
Rp116
sS'id'
p117
I8
sS'name'
p118
S'What the #$*! Do We Know!? (2004)'
p119
ssI9
(dp120
S'data_time'
p121
F2.645303964614868
sS'r2'
p122
g4
(g8
S'\x00\xf8\x951\x18\xfb\\\xbf'
p123
tp124
Rp125
sS'regr_time'
p126
F0.07505106925964355
sS'mse'
p127
g4
(g8
S'\xcd\xc2\xd8\x13\xdeH\xfa?'
p128
tp129
Rp130
sS'id'
p131
I9
sS'name'
p132
S"Class of Nuke 'Em High 2 (1991)"
p133
ssI10
(dp134
S'data_time'
p135
F0.8288450241088867
sS'r2'
p136
g4
(g8
S'`\xc7\xf9v\xdeU\xa9?'
p137
tp138
Rp139
sS'regr_time'
p140
F0.6474721431732178
sS'mse'
p141
g4
(g8
S'\xe4\xe85m6\xbc\xed?'
p142
tp143
Rp144
sS'id'
p145
I10
sS'name'
p146
S'Fighter (2001)'
p147
ssI11
(dp148
S'data_time'
p149
F0.7847728729248047
sS'r2'
p150
g4
(g8
S'8&uJt$\xb8?'
p151
tp152
Rp153
sS'regr_time'
p154
F0.21512579917907715
sS'mse'
p155
g4
(g8
S'-\xb7\xb7\xc9\x1f\x90\xf3?'
p156
tp157
Rp158
sS'id'
p159
I11
sS'name'
p160
S'Full Frame: Documentary Shorts (1999)'
p161
ssI12
(dp162
S'data_time'
p163
F0.9995510578155518
sS'r2'
p164
g4
(g8
S'@\xe2\xb3_\x07s\xad?'
p165
tp166
Rp167
sS'regr_time'
p168
F0.29540109634399414
sS'mse'
p169
g4
(g8
S'\x10\xed5\xf7\x81\x9c\xf0?'
p170
tp171
Rp172
sS'id'
p173
I12
sS'name'
p174
S'My Favorite Brunette (1947)'
p175
ssI13
(dp176
S'data_time'
p177
F0.6786220073699951
sS'r2'
p178
g4
(g8
S'\xda\xc4:\xe1D\xc1\xd1?'
p179
tp180
Rp181
sS'regr_time'
p182
F0.45472002029418945
sS'mse'
p183
g4
(g8
S'\x0f\xffr\x1f>\xa4\xd6?'
p184
tp185
Rp186
sS'id'
p187
I13
sS'name'
p188
S'Lord of the Rings: The Return of the King: Extended Edition: Bonus Material (2003)'
p189
ssI14
(dp190
S'data_time'
p191
F0.6510841846466064
sS'r2'
p192
g4
(g8
S'L\xe9\xb5n\xb8\x8c\xe1\xbf'
p193
tp194
Rp195
sS'regr_time'
p196
F0.24183201789855957
sS'mse'
p197
g4
(g8
S'\xe0\xcb\xcb\xd8L\xa5\xf4?'
p198
tp199
Rp200
sS'id'
p201
I14
sS'name'
p202
S'Nature: Antarctica (1982)'
p203
ssI15
(dp204
S'data_time'
p205
F4.229091167449951
sS'r2'
p206
g4
(g8
S'p\x01-\xef\xb3W\xcf\xbf'
p207
tp208
Rp209
sS'regr_time'
p210
F0.09213495254516602
sS'mse'
p211
g4
(g8
S'\xa9\xec\xa2\xb7.\xf5\xfa?'
p212
tp213
Rp214
sS'id'
p215
I15
sS'name'
p216
S'Neil Diamond: Greatest Hits Live (1988)'
p217
ssI16
(dp218
S'data_time'
p219
F1.2666587829589844
sS'r2'
p220
g4
(g8
S'\x90\xa9<\x03M\x1a\xc0?'
p221
tp222
Rp223
sS'regr_time'
p224
F1.2375240325927734
sS'mse'
p225
g4
(g8
S'\xa1\x8d]\x91\xae\xc1\xe8?'
p226
tp227
Rp228
sS'id'
p229
I16
sS'name'
p230
S'Screamers (1996)'
p231
ssI17
(dp232
S'data_time'
p233
F1.597825050354004
sS'r2'
p234
g4
(g8
S'\x0cF\xf0G\xbb\xe6\xec\xbf'
p235
tp236
Rp237
sS'regr_time'
p238
F0.2707240581512451
sS'mse'
p239
g4
(g8
S'\x16\x1c\x85C\x11\x14\xfe?'
p240
tp241
Rp242
sS'id'
p243
I17
sS'name'
p244
S'7 Seconds (2005)'
p245
ssI18
(dp246
S'data_time'
p247
F2.5573501586914062
sS'r2'
p248
g4
(g8
S'p\x15s{\xd8\x93\xc9\xbf'
p249
tp250
Rp251
sS'regr_time'
p252
F0.4525430202484131
sS'mse'
p253
g4
(g8
S'\x89\x97\t*\x8dH\xf2?'
p254
tp255
Rp256
sS'id'
p257
I18
sS'name'
p258
S'Immortal Beloved (1994)'
p259
ssI19
(dp260
S'data_time'
p261
F0.9634768962860107
sS'r2'
p262
g4
(g8
S'@\x7f\xe4\xbb\xbd[\xc8\xbf'
p263
tp264
Rp265
sS'regr_time'
p266
F0.7661819458007812
sS'mse'
p267
g4
(g8
S'\x19\x84Z\x03\xb4\xcb\xf1?'
p268
tp269
Rp270
sS'id'
p271
I19
sS'name'
p272
S"By Dawn's Early Light (2000)"
p273
ssI20
(dp274
S'data_time'
p275
F0.8077869415283203
sS'r2'
p276
g4
(g8
S'\xacs\x91w\xd5\xdc\xc7?'
p277
tp278
Rp279
sS'regr_time'
p280
F0.10041594505310059
sS'mse'
p281
g4
(g8
S'\x16am\x88\x9e\xa0\xf1?'
p282
tp283
Rp284
sS'id'
p285
I20
sS'name'
p286
S'Seeta Aur Geeta (1972)'
p287
ssI21
(dp288
S'data_time'
p289
F3.472475051879883
sS'r2'
p290
g4
(g8
S'\xd0\xb9\xe9G)\xb6\xd5\xbf'
p291
tp292
Rp293
sS'regr_time'
p294
F0.056823015213012695
sS'mse'
p295
g4
(g8
S'0\x0b\xe7\x14\xf7\xe6\xee?'
p296
tp297
Rp298
sS'id'
p299
I21
sS'name'
p300
S'Strange Relations (2002)'
p301
ssI22
(dp302
S'data_time'
p303
F0.7533271312713623
sS'r2'
p304
g4
(g8
S'\xf8f\x88/y\x89\xb8?'
p305
tp306
Rp307
sS'regr_time'
p308
F0.6739659309387207
sS'mse'
p309
g4
(g8
S'\x8e\n\tK\xd1a\xf2?'
p310
tp311
Rp312
sS'id'
p313
I22
sS'name'
p314
S'Chump Change (2000)'
p315
ssI23
(dp316
S'data_time'
p317
F0.916132926940918
sS'r2'
p318
g4
(g8
S'@\xb8\xf2\x10\x8dY\x93\xbf'
p319
tp320
Rp321
sS'regr_time'
p322
F0.7235090732574463
sS'mse'
p323
g4
(g8
S'\xff*\x07\xab-\xfe\xf6?'
p324
tp325
Rp326
sS'id'
p327
I23
sS'name'
p328
S"Clifford: Clifford Saves the Day! / Clifford's Fluffiest Friend Cleo (2001)"
p329
ssI24
(dp330
S'data_time'
p331
F1.6313731670379639
sS'r2'
p332
g4
(g8
S'^\nJx\xa1\xfb\xdf?'
p333
tp334
Rp335
sS'regr_time'
p336
F0.5156638622283936
sS'mse'
p337
g4
(g8
S'\xdc\x1e\x96\n\n\xea\xe3?'
p338
tp339
Rp340
sS'id'
p341
I24
sS'name'
p342
S'My Bloody Valentine (1981)'
p343
ssI25
(dp344
S'data_time'
p345
F1.26857590675354
sS'r2'
p346
g4
(g8
S'\x1e*,!\x97X\xe2?'
p347
tp348
Rp349
sS'regr_time'
p350
F1.0711688995361328
sS'mse'
p351
g4
(g8
S'8\\\xdfDUB\xd9?'
p352
tp353
Rp354
sS'id'
p355
I25
sS'name'
p356
S'Inspector Morse 31: Death Is Now My Neighbour (1997)'
p357
ssI26
(dp358
S'data_time'
p359
F1.6693429946899414
sS'r2'
p360
g4
(g8
S'8\x98dZ\xee\xb0\xe2\xbf'
p361
tp362
Rp363
sS'regr_time'
p364
F0.6660099029541016
sS'mse'
p365
g4
(g8
S'd\x98Jj\xa3\xe7\xfb?'
p366
tp367
Rp368
sS'id'
p369
I26
sS'name'
p370
S'Never Die Alone (2004)'
p371
ssI27
(dp372
S'data_time'
p373
F1.5000700950622559
sS'r2'
p374
g4
(g8
S'\x18\xfe\xc19\xca\x8b\xba?'
p375
tp376
Rp377
sS'regr_time'
p378
F0.2990541458129883
sS'mse'
p379
g4
(g8
S'O\x85H,\x9f\xc7\xf7?'
p380
tp381
Rp382
sS'id'
p383
I27
sS'name'
p384
S"Sesame Street: Elmo's World: The Street We Live On (1962)"
p385
ssI28
(dp386
S'data_time'
p387
F1.4316439628601074
sS'r2'
p388
g4
(g8
S'\x00\xecR\xd1\xd7L\xd5\xbf'
p389
tp390
Rp391
sS'regr_time'
p392
F1.5343940258026123
sS'mse'
p393
g4
(g8
S'W\x93a\r\xe3m\xf3?'
p394
tp395
Rp396
sS'id'
p397
I28
sS'name'
p398
S'Lilo and Stitch (2002)'
p399
ssI29
(dp400
S'data_time'
p401
F1.1909070014953613
sS'r2'
p402
g4
(g8
S'8\xe6\xb8HR\xf7\xc0\xbf'
p403
tp404
Rp405
sS'regr_time'
p406
F0.738508939743042
sS'mse'
p407
g4
(g8
S'O1U.\xa2\xea\xf4?'
p408
tp409
Rp410
sS'id'
p411
I29
sS'name'
p412
S'Boycott (2001)'
p413
ssI30
(dp414
S'data_time'
p415
F1.3797268867492676
sS'r2'
p416
g4
(g8
S'H\xad=\xaeA\xd3\xed\xbf'
p417
tp418
Rp419
sS'regr_time'
p420
F0.770035982131958
sS'mse'
p421
g4
(g8
S'\x8fd\xdb\r\xfe\x1e\xf6?'
p422
tp423
Rp424
sS'id'
p425
I30
sS'name'
p426
S"Something's Gotta Give (2003)"
p427
ss.