(dp0
I1792
(dp1
S'data_time'
p2
F1.2523078918457031
sS'r2'
p3
cnumpy.core.multiarray
scalar
p4
(cnumpy
dtype
p5
(S'f8'
p6
I0
I1
tp7
Rp8
(I3
S'<'
p9
NNNI-1
I-1
I0
tp10
bS'\xc0\xf5\x12R\x84\x9f\xb0\xbf'
p11
tp12
Rp13
sS'regr_time'
p14
F1.5174078941345215
sS'mse'
p15
g4
(g8
S'3{iVvL\xf5?'
p16
tp17
Rp18
sS'id'
p19
I1792
sS'name'
p20
S'Psycho (1998)'
p21
ssI1793
(dp22
S'data_time'
p23
F2.7362780570983887
sS'r2'
p24
g4
(g8
S'\xbe\x84\x17\xd0\xa9\x01\xd7?'
p25
tp26
Rp27
sS'regr_time'
p28
F1.090433120727539
sS'mse'
p29
g4
(g8
S'\xc6\xbd\xfb\xeb\x8c\x18\xf7?'
p30
tp31
Rp32
sS'id'
p33
I1793
sS'name'
p34
S'Sailor Moon: Vol. 10: The Trouble With Rini (1992)'
p35
ssI1794
(dp36
S'data_time'
p37
F1.532020092010498
sS'r2'
p38
g4
(g8
S'\x06\xc1\xa0\x87\x05\xb5\xd2?'
p39
tp40
Rp41
sS'regr_time'
p42
F0.23784899711608887
sS'mse'
p43
g4
(g8
S'%\x8b;\x1bmm\xf0?'
p44
tp45
Rp46
sS'id'
p47
I1794
sS'name'
p48
S'The Rage: Carrie 2 (1999)'
p49
ssI1795
(dp50
S'data_time'
p51
F1.3240761756896973
sS'r2'
p52
g4
(g8
S"\x02\xf9b\xe7'\xe7\xda?"
p53
tp54
Rp55
sS'regr_time'
p56
F0.8358519077301025
sS'mse'
p57
g4
(g8
S'\x07\xc3\xcf$xI\xe2?'
p58
tp59
Rp60
sS'id'
p61
I1795
sS'name'
p62
S'MASH: Season 7 (1978)'
p63
ssI1796
(dp64
S'data_time'
p65
F2.086932897567749
sS'r2'
p66
g4
(g8
S'\xa0"\xce\x83$(\x98?'
p67
tp68
Rp69
sS'regr_time'
p70
F0.20732498168945312
sS'mse'
p71
g4
(g8
S'\x82\xd9\x14M\xf2u\xf1?'
p72
tp73
Rp74
sS'id'
p75
I1796
sS'name'
p76
S'La Petite Lili (2003)'
p77
ssI1797
(dp78
S'data_time'
p79
F1.2538559436798096
sS'r2'
p80
g4
(g8
S'\x1cxK\xbd\xcd\x7f\xe3\xbf'
p81
tp82
Rp83
sS'regr_time'
p84
F0.9638819694519043
sS'mse'
p85
g4
(g8
S's\xd0I.\x05\xb3\x00@'
p86
tp87
Rp88
sS'id'
p89
I1797
sS'name'
p90
S"The Horse's Mouth (1958)"
p91
ssI1798
(dp92
S'data_time'
p93
F1.1461830139160156
sS'r2'
p94
g4
(g8
S'\xe0\xa7\x8c\xf0\xe7\xef\xd9\xbf'
p95
tp96
Rp97
sS'regr_time'
p98
F1.261929988861084
sS'mse'
p99
g4
(g8
S'\xecRd\xf0$\xf4\xf2?'
p100
tp101
Rp102
sS'id'
p103
I1798
sS'name'
p104
S'Lethal Weapon (1987)'
p105
ssI1799
(dp106
S'data_time'
p107
F3.238773822784424
sS'r2'
p108
g4
(g8
S'\x00\xad\xba\xb6\x8a\x1c\x85\xbf'
p109
tp110
Rp111
sS'regr_time'
p112
F1.3894050121307373
sS'mse'
p113
g4
(g8
S'\xe3\x1eZ\xb0\xc5\xef\xf1?'
p114
tp115
Rp116
sS'id'
p117
I1799
sS'name'
p118
S'Die Hard 2: Die Harder (1990)'
p119
ssI1800
(dp120
S'data_time'
p121
F1.1869440078735352
sS'r2'
p122
g4
(g8
S'r\xc2s?z\xc0\xe7\xbf'
p123
tp124
Rp125
sS'regr_time'
p126
F0.1956799030303955
sS'mse'
p127
g4
(g8
S'3\x83\x8d\xa2\xd0\xea\xff?'
p128
tp129
Rp130
sS'id'
p131
I1800
sS'name'
p132
S'An Evening With Kevin Smith (2002)'
p133
ssI1771
(dp134
S'data_time'
p135
F1.187479019165039
sS'r2'
p136
g4
(g8
S'\xbc\xacm\xb5\xe3\xf9\xd1\xbf'
p137
tp138
Rp139
sS'regr_time'
p140
F1.1725478172302246
sS'mse'
p141
g4
(g8
S'C\xdb9\xd8\x8dP\xfd?'
p142
tp143
Rp144
sS'id'
p145
I1771
sS'name'
p146
S'A Dirty Shame (2004)'
p147
ssI1772
(dp148
S'data_time'
p149
F2.427867889404297
sS'r2'
p150
g4
(g8
S'`\xfe\n\x89\xc6\x00\xba\xbf'
p151
tp152
Rp153
sS'regr_time'
p154
F0.02197408676147461
sS'mse'
p155
g4
(g8
S'9Y\xc9x\xfbM\xf2?'
p156
tp157
Rp158
sS'id'
p159
I1772
sS'name'
p160
S"Flipper's New Adventure (1964)"
p161
ssI1773
(dp162
S'data_time'
p163
F1.3233189582824707
sS'r2'
p164
g4
(g8
S'\xe4i\xc8\xe0:F\xc2?'
p165
tp166
Rp167
sS'regr_time'
p168
F1.1069731712341309
sS'mse'
p169
g4
(g8
S'\xec\xad\xc0\xb6:\r\xef?'
p170
tp171
Rp172
sS'id'
p173
I1773
sS'name'
p174
S'Do You Believe in Miracles? (2001)'
p175
ssI1774
(dp176
S'data_time'
p177
F0.9676361083984375
sS'r2'
p178
g4
(g8
S'\xc0\x1a\x80o\x03\xb3\xac\xbf'
p179
tp180
Rp181
sS'regr_time'
p182
F0.48186302185058594
sS'mse'
p183
g4
(g8
S'\x1a\x92\xeb=\xcaV\xf2?'
p184
tp185
Rp186
sS'id'
p187
I1774
sS'name'
p188
S'Once Upon a Time When We Were Colored (1995)'
p189
ssI1775
(dp190
S'data_time'
p191
F1.0626881122589111
sS'r2'
p192
g4
(g8
S'\xe8\xfe\x9bW\xd6\x1d\xd8?'
p193
tp194
Rp195
sS'regr_time'
p196
F0.7909500598907471
sS'mse'
p197
g4
(g8
S'\r\x9fQ\xabT\x9e\xe7?'
p198
tp199
Rp200
sS'id'
p201
I1775
sS'name'
p202
S'Dario Argento Collection: Vol. 1: Phenomena (1985)'
p203
ssI1776
(dp204
S'data_time'
p205
F2.8297550678253174
sS'r2'
p206
g4
(g8
S'\xfc\xfd\xe5"bg\xd0\xbf'
p207
tp208
Rp209
sS'regr_time'
p210
F1.0908689498901367
sS'mse'
p211
g4
(g8
S'\xdc\x9d\nC\x80\xd4\x01@'
p212
tp213
Rp214
sS'id'
p215
I1776
sS'name'
p216
S'Digimon: The Movie (2000)'
p217
ssI1777
(dp218
S'data_time'
p219
F0.8417580127716064
sS'r2'
p220
g4
(g8
S'\x88<\xc6t#\x9e\xca\xbf'
p221
tp222
Rp223
sS'regr_time'
p224
F0.3269460201263428
sS'mse'
p225
g4
(g8
S'\x19\x8c\x10\xe3M\xcc\xf6?'
p226
tp227
Rp228
sS'id'
p229
I1777
sS'name'
p230
S'Tito and Me (1992)'
p231
ssI1778
(dp232
S'data_time'
p233
F1.1735620498657227
sS'r2'
p234
g4
(g8
S'\xe4\x81x_\x97\x1b\xe2?'
p235
tp236
Rp237
sS'regr_time'
p238
F0.8879868984222412
sS'mse'
p239
g4
(g8
S'\xe9\xaf\xd6y\xc8O\xdc?'
p240
tp241
Rp242
sS'id'
p243
I1778
sS'name'
p244
S'Road to Singapore (1940)'
p245
ssI1779
(dp246
S'data_time'
p247
F1.6149120330810547
sS'r2'
p248
g4
(g8
S'\xd0\x91\x9boT\x94\xb7\xbf'
p249
tp250
Rp251
sS'regr_time'
p252
F0.019936084747314453
sS'mse'
p253
g4
(g8
S'\n\x125\x1aI\xf4\xf1?'
p254
tp255
Rp256
sS'id'
p257
I1779
sS'name'
p258
S'Led Zeppelin: Inside Led Zeppelin 1968-1972 (2005)'
p259
ssI1780
(dp260
S'data_time'
p261
F1.2724270820617676
sS'r2'
p262
g4
(g8
S'\x18\x1b\xbc\x89\xb9\x9b\xe0?'
p263
tp264
Rp265
sS'regr_time'
p266
F1.473327875137329
sS'mse'
p267
g4
(g8
S'\x0e\x1c\xdd\x97~e\xe6?'
p268
tp269
Rp270
sS'id'
p271
I1780
sS'name'
p272
S'Behind the Planet of the Apes (1998)'
p273
ssI1781
(dp274
S'data_time'
p275
F3.3036351203918457
sS'r2'
p276
g4
(g8
S'\xde\xc5\xbbZ\xe99\xe1\xbf'
p277
tp278
Rp279
sS'regr_time'
p280
F0.7272000312805176
sS'mse'
p281
g4
(g8
S'\xce\x88\xf3\xc5\xfc\xa0\xf8?'
p282
tp283
Rp284
sS'id'
p285
I1781
sS'name'
p286
S'Noi the Albino (2004)'
p287
ssI1782
(dp288
S'data_time'
p289
F1.0501549243927002
sS'r2'
p290
g4
(g8
S'\xac\xb0=`\x8b\xae\xde\xbf'
p291
tp292
Rp293
sS'regr_time'
p294
F0.19771194458007812
sS'mse'
p295
g4
(g8
S'p\x08\xf5\x90\x95\x04\x01@'
p296
tp297
Rp298
sS'id'
p299
I1782
sS'name'
p300
S'Derrida (2002)'
p301
ssI1783
(dp302
S'data_time'
p303
F1.1835711002349854
sS'r2'
p304
g4
(g8
S' 4\x80\x8d\x19X\xb3\xbf'
p305
tp306
Rp307
sS'regr_time'
p308
F1.8996191024780273
sS'mse'
p309
g4
(g8
S'\xb3F\xa6\xc2\xa6\x89\xf1?'
p310
tp311
Rp312
sS'id'
p313
I1783
sS'name'
p314
S'The Best Little Whorehouse in Texas (1982)'
p315
ssI1784
(dp316
S'data_time'
p317
F2.6130740642547607
sS'r2'
p318
g4
(g8
S'\x99\x00+\xe8\x0b\x82\x04\xc0'
p319
tp320
Rp321
sS'regr_time'
p322
F1.106827974319458
sS'mse'
p323
g4
(g8
S'H\xbb$\xebJ\xad\n@'
p324
tp325
Rp326
sS'id'
p327
I1784
sS'name'
p328
S'Camille (1936)'
p329
ssI1785
(dp330
S'data_time'
p331
F0.8328120708465576
sS'r2'
p332
g4
(g8
S'\xff\x03rn\x04\xbc\x00\xc0'
p333
tp334
Rp335
sS'regr_time'
p336
F0.01563405990600586
sS'mse'
p337
g4
(g8
S'uL\xf33z\xa7\x11@'
p338
tp339
Rp340
sS'id'
p341
I1785
sS'name'
p342
S'Kirk Franklin: The Rebirth of Kirk Franklin: Live (2002)'
p343
ssI1786
(dp344
S'data_time'
p345
F0.8898470401763916
sS'r2'
p346
g4
(g8
S'\xa0\xab\x98\x05\xc1A\xa3?'
p347
tp348
Rp349
sS'regr_time'
p350
F0.9637460708618164
sS'mse'
p351
g4
(g8
S"\xcf\x7fO'P\xad\xf2?"
p352
tp353
Rp354
sS'id'
p355
I1786
sS'name'
p356
S'Side Out (1990)'
p357
ssI1787
(dp358
S'data_time'
p359
F1.1368470191955566
sS'r2'
p360
g4
(g8
S'h%P\x1f\xdf\xdf\xd8\xbf'
p361
tp362
Rp363
sS'regr_time'
p364
F0.3290839195251465
sS'mse'
p365
g4
(g8
S'\x97B#\xd2\xbd\xc8\xf9?'
p366
tp367
Rp368
sS'id'
p369
I1787
sS'name'
p370
S'Omega Doom / Blind Fury: Double Feature (1996)'
p371
ssI1788
(dp372
S'data_time'
p373
F1.5533289909362793
sS'r2'
p374
g4
(g8
S'\xc0.\xc4\xcf\x14\xda\xcf\xbf'
p375
tp376
Rp377
sS'regr_time'
p378
F0.6613781452178955
sS'mse'
p379
g4
(g8
S'\xcd\xed\x7f\xdb\xf0\x03\xfa?'
p380
tp381
Rp382
sS'id'
p383
I1788
sS'name'
p384
S'Earthsea (2004)'
p385
ssI1789
(dp386
S'data_time'
p387
F1.2309248447418213
sS'r2'
p388
g4
(g8
S'V1\xa4\xf1f\xe4\xe5?'
p389
tp390
Rp391
sS'regr_time'
p392
F1.3205580711364746
sS'mse'
p393
g4
(g8
S'nL\x9buz\x84\xd5?'
p394
tp395
Rp396
sS'id'
p397
I1789
sS'name'
p398
S'Cracker: Series 2 (1994)'
p399
ssI1790
(dp400
S'data_time'
p401
F2.6139729022979736
sS'r2'
p402
g4
(g8
S'\x88\x81(s\x05\x8a\xcc\xbf'
p403
tp404
Rp405
sS'regr_time'
p406
F1.1116318702697754
sS'mse'
p407
g4
(g8
S"P\xd3\xf0'\xdb\xab\xf1?"
p408
tp409
Rp410
sS'id'
p411
I1790
sS'name'
p412
S'Born Free (1966)'
p413
ssI1791
(dp414
S'data_time'
p415
F0.6046340465545654
sS'r2'
p416
g4
(g8
S'\xc0{r*\xd9\x16\x91\xbf'
p417
tp418
Rp419
sS'regr_time'
p420
F0.0364069938659668
sS'mse'
p421
g4
(g8
S'.Y\xa0\x04hC\xea?'
p422
tp423
Rp424
sS'id'
p425
I1791
sS'name'
p426
S'Trailer: The Movie (1999)'
p427
ss.