(dp0
I17700
(dp1
S'data_time'
p2
F6.919945955276489
sS'r2'
p3
cnumpy.core.multiarray
scalar
p4
(cnumpy
dtype
p5
(S'f8'
p6
I0
I1
tp7
Rp8
(I3
S'<'
p9
NNNI-1
I-1
I0
tp10
bS'\x00\x00\x00\x00\x00\x00\xf0?'
p11
tp12
Rp13
sS'regr_time'
p14
F0.8618419170379639
sS'mse'
p15
g4
(g8
S'\x00\x00\x00\x00\x00\x00\x00\x00'
p16
tp17
Rp18
sS'id'
p19
I17700
sS'name'
p20
S'Mysteries of the Deep: Legendary Shipwrecks: Secrets of the Titanic (1986)'
p21
ssI17701
(dp22
S'data_time'
p23
F4.22768497467041
sS'r2'
p24
g4
(g8
S'@2\xdf\x9c\xb9\xcd\xbd?'
p25
tp26
Rp27
sS'regr_time'
p28
F144.22600603103638
sS'mse'
p29
g4
(g8
S'1Ja>\x81\xcb\xf6?'
p30
tp31
Rp32
sS'id'
p33
I17701
sS'name'
p34
S'Fellini Satyricon (1969)'
p35
ssI17702
(dp36
S'data_time'
p37
F3.6759300231933594
sS'r2'
p38
g4
(g8
S'\xec\xf5\xb2u\x9f\x0e\xce?'
p39
tp40
Rp41
sS'regr_time'
p42
F178.1718831062317
sS'mse'
p43
g4
(g8
S'.t\xa6\xb8\xc6f\xee?'
p44
tp45
Rp46
sS'id'
p47
I17702
sS'name'
p48
S'Comic Book: The Movie (2004)'
p49
ssI17703
(dp50
S'data_time'
p51
F4.8838207721710205
sS'r2'
p52
g4
(g8
S'\xa0%\x85\xae\x8e\x9b\xa3?'
p53
tp54
Rp55
sS'regr_time'
p56
F141.83428812026978
sS'mse'
p57
g4
(g8
S'@[\xce\x1c\x04\xae\xf2?'
p58
tp59
Rp60
sS'id'
p61
I17703
sS'name'
p62
S'Hulk (2003)'
p63
ssI17704
(dp64
S'data_time'
p65
F2.9836318492889404
sS'r2'
p66
g4
(g8
S'(\xe3c\x10B\xec\xba?'
p67
tp68
Rp69
sS'regr_time'
p70
F158.8312599658966
sS'mse'
p71
g4
(g8
S'\xad\x13\x95\x01{.\xf2?'
p72
tp73
Rp74
sS'id'
p75
I17704
sS'name'
p76
S'Taboo (1999)'
p77
ssI17705
(dp78
S'data_time'
p79
F2.8007490634918213
sS'r2'
p80
g4
(g8
S'x\x00\xc30\x1f\xd5\xc4\xbf'
p81
tp82
Rp83
sS'regr_time'
p84
F12.733153104782104
sS'mse'
p85
g4
(g8
S'\x99\x15\xf1\xfa\xb2E\xf3?'
p86
tp87
Rp88
sS'id'
p89
I17705
sS'name'
p90
S'Evil Alien Conquerors (2002)'
p91
ssI17706
(dp92
S'data_time'
p93
F2.7748970985412598
sS'r2'
p94
g4
(g8
S'\xb0\x8c4\xdd~\x04\xaa?'
p95
tp96
Rp97
sS'regr_time'
p98
F42.99181294441223
sS'mse'
p99
g4
(g8
S'Q\xf5a\xdb\xa2s\xf7?'
p100
tp101
Rp102
sS'id'
p103
I17706
sS'name'
p104
S'Najica Blitz Tactics (2001)'
p105
ssI17707
(dp106
S'data_time'
p107
F3.0721559524536133
sS'r2'
p108
g4
(g8
S'\x80l%\xc7\xfb\xbb\xb0\xbf'
p109
tp110
Rp111
sS'regr_time'
p112
F42.393285036087036
sS'mse'
p113
g4
(g8
S'\x18\xf8\xe2\x8f\x01p\xf1?'
p114
tp115
Rp116
sS'id'
p117
I17707
sS'name'
p118
S'Latter Days (2004)'
p119
ssI17708
(dp120
S'data_time'
p121
F2.824946165084839
sS'r2'
p122
g4
(g8
S'\xe0\x94\xda\x86\xa5\x85\xd1?'
p123
tp124
Rp125
sS'regr_time'
p126
F63.854825019836426
sS'mse'
p127
g4
(g8
S'\x8f\x8b\xdb\xd3A\xdf\xec?'
p128
tp129
Rp130
sS'id'
p131
I17708
sS'name'
p132
S'Trembling Before G-d (2001)'
p133
ssI17709
(dp134
S'data_time'
p135
F1.5304219722747803
sS'r2'
p136
g4
(g8
S'\xcc\x06\xec\xc6+\x87\xc4?'
p137
tp138
Rp139
sS'regr_time'
p140
F45.25272798538208
sS'mse'
p141
g4
(g8
S']c(\x1b\x85L\xe9?'
p142
tp143
Rp144
sS'id'
p145
I17709
sS'name'
p146
S'A River Runs Through It (1992)'
p147
ssI17710
(dp148
S'data_time'
p149
F6.104403018951416
sS'r2'
p150
g4
(g8
S'\xd0\xe4#\x9f\x198\xbe?'
p151
tp152
Rp153
sS'regr_time'
p154
F16.74698781967163
sS'mse'
p155
g4
(g8
S'\x15\xed\xfcE5\xdc\xef?'
p156
tp157
Rp158
sS'id'
p159
I17710
sS'name'
p160
S'Going Down (2003)'
p161
ssI17711
(dp162
S'data_time'
p163
F4.71062707901001
sS'r2'
p164
g4
(g8
S'\xb4\xa5\x04\x15\xc3)\xcd?'
p165
tp166
Rp167
sS'regr_time'
p168
F154.93986296653748
sS'mse'
p169
g4
(g8
S'\xc3|L\xcco\xcb\xea?'
p170
tp171
Rp172
sS'id'
p173
I17711
sS'name'
p174
S'The Diary of Ellen Rimbauer (2003)'
p175
ssI17712
(dp176
S'data_time'
p177
F2.6226751804351807
sS'r2'
p178
g4
(g8
S'\x14`^\xc8X\xce\xc9?'
p179
tp180
Rp181
sS'regr_time'
p182
F10.853125810623169
sS'mse'
p183
g4
(g8
S'sv\x06\xeeg\xbb\xfd?'
p184
tp185
Rp186
sS'id'
p187
I17712
sS'name'
p188
S'The Doobie Brothers: Live at Wolf Trap (2004)'
p189
ssI17713
(dp190
S'data_time'
p191
F2.777212142944336
sS'r2'
p192
g4
(g8
S'd\xd9U\x0f\xe0\xd6\xde?'
p193
tp194
Rp195
sS'regr_time'
p196
F66.43784999847412
sS'mse'
p197
g4
(g8
S'\x88\xec\x06O\x94\x80\xe9?'
p198
tp199
Rp200
sS'id'
p201
I17713
sS'name'
p202
S'WWE: Summerslam 2004 (2004)'
p203
ssI17714
(dp204
S'data_time'
p205
F4.208874940872192
sS'r2'
p206
g4
(g8
S'\xb8\xbd4\xdetf\xba?'
p207
tp208
Rp209
sS'regr_time'
p210
F76.17759013175964
sS'mse'
p211
g4
(g8
S'\xdf\x9d\xa5\xe6\x11\x07\xf8?'
p212
tp213
Rp214
sS'id'
p215
I17714
sS'name'
p216
S'The Little Mermaid (1989)'
p217
ssI17715
(dp218
S'data_time'
p219
F4.705910921096802
sS'r2'
p220
g4
(g8
S'd\x95\xdcI;\xa4\xc9?'
p221
tp222
Rp223
sS'regr_time'
p224
F169.48536109924316
sS'mse'
p225
g4
(g8
S'Qz\xa8\xe1z\xb5\xed?'
p226
tp227
Rp228
sS'id'
p229
I17715
sS'name'
p230
S'The Adventures of Ma and Pa Kettle: Vol. 1 (1947)'
p231
ssI17716
(dp232
S'data_time'
p233
F5.04380202293396
sS'r2'
p234
g4
(g8
S'\x1c\x98\x96\xe5\x9a\x18\xd3?'
p235
tp236
Rp237
sS'regr_time'
p238
F147.63654804229736
sS'mse'
p239
g4
(g8
S'\xa8\x04w!\xce\x9e\xe6?'
p240
tp241
Rp242
sS'id'
p243
I17716
sS'name'
p244
S'Some Folks Call it a Sling Blade (1993)'
p245
ssI17717
(dp246
S'data_time'
p247
F2.926973819732666
sS'r2'
p248
g4
(g8
S't\x8b"\x06\t6\xde?'
p249
tp250
Rp251
sS'regr_time'
p252
F25.819262981414795
sS'mse'
p253
g4
(g8
S'\xc3\x0f\x1e9\xdb\xad\xe6?'
p254
tp255
Rp256
sS'id'
p257
I17717
sS'name'
p258
S'Sol Bianca: The Legacy: Vol. 3: Going Home (1991)'
p259
ssI17718
(dp260
S'data_time'
p261
F2.3250811100006104
sS'r2'
p262
g4
(g8
S"\x94\xfd'\xf8\x1d\x01\xc6?"
p263
tp264
Rp265
sS'regr_time'
p266
F13.878399133682251
sS'mse'
p267
g4
(g8
S'\r\xfb>=}\xd6\xf0?'
p268
tp269
Rp270
sS'id'
p271
I17718
sS'name'
p272
S'The Delta (1996)'
p273
ssI17719
(dp274
S'data_time'
p275
F2.8532180786132812
sS'r2'
p276
g4
(g8
S'\x80\x96\xd0\x90\xe2O\xa9?'
p277
tp278
Rp279
sS'regr_time'
p280
F20.12658381462097
sS'mse'
p281
g4
(g8
S"Io\xc7\xf9'\xf3\xf5?"
p282
tp283
Rp284
sS'id'
p285
I17719
sS'name'
p286
S'The Europeans (1979)'
p287
ssI17720
(dp288
S'data_time'
p289
F6.141393184661865
sS'r2'
p290
g4
(g8
S'(Y\xb9\xa1\xcd@\xb2?'
p291
tp292
Rp293
sS'regr_time'
p294
F10.145231008529663
sS'mse'
p295
g4
(g8
S'X\xed\x8a\xfa\xb3\xa9\xf4?'
p296
tp297
Rp298
sS'id'
p299
I17720
sS'name'
p300
S'Pirates of the Plain (1999)'
p301
ssI17721
(dp302
S'data_time'
p303
F4.224804162979126
sS'r2'
p304
g4
(g8
S'\xf0\xb9\x1d,\x80M\xb8?'
p305
tp306
Rp307
sS'regr_time'
p308
F58.191081047058105
sS'mse'
p309
g4
(g8
S'\xfc/3\\4\x01\xf3?'
p310
tp311
Rp312
sS'id'
p313
I17721
sS'name'
p314
S'The Love Letter (1998)'
p315
ssI17722
(dp316
S'data_time'
p317
F2.851046085357666
sS'r2'
p318
g4
(g8
S'(\xe5n0\x03\x9f\xc5?'
p319
tp320
Rp321
sS'regr_time'
p322
F15.948538064956665
sS'mse'
p323
g4
(g8
S'\x83\xcc\xe1\x10\xf0%\xf3?'
p324
tp325
Rp326
sS'id'
p327
I17722
sS'name'
p328
S'Faerie Tale Theatre: The Little Mermaid (1984)'
p329
ssI17723
(dp330
S'data_time'
p331
F4.227108001708984
sS'r2'
p332
g4
(g8
S'\xac*~\xc5\xeb\x8e\xc2?'
p333
tp334
Rp335
sS'regr_time'
p336
F149.89185094833374
sS'mse'
p337
g4
(g8
S'\xcaK\xb9M\x9a\x9d\xee?'
p338
tp339
Rp340
sS'id'
p341
I17723
sS'name'
p342
S'Redemption (2004)'
p343
ssI17724
(dp344
S'data_time'
p345
F4.516621112823486
sS'r2'
p346
g4
(g8
S'P\xe5]\x95\xfe\x16\xae?'
p347
tp348
Rp349
sS'regr_time'
p350
F151.8377230167389
sS'mse'
p351
g4
(g8
S'&\xef\xd7(a\x84\xea?'
p352
tp353
Rp354
sS'id'
p355
I17724
sS'name'
p356
S'Gettysburg (1993)'
p357
ssI17725
(dp358
S'data_time'
p359
F3.7736430168151855
sS'r2'
p360
g4
(g8
S'\x18\xed\xfd\xce\xca\xee\xbf?'
p361
tp362
Rp363
sS'regr_time'
p364
F149.2788541316986
sS'mse'
p365
g4
(g8
S'\xa1\x8c\x04\x01\xef2\xeb?'
p366
tp367
Rp368
sS'id'
p369
I17725
sS'name'
p370
S"Jerry Seinfeld: I'm Telling You for the Last Time (1999)"
p371
ssI17726
(dp372
S'data_time'
p373
F3.197683811187744
sS'r2'
p374
g4
(g8
S'\xb8I\xfe[4\xf2\xc7?'
p375
tp376
Rp377
sS'regr_time'
p378
F133.29090118408203
sS'mse'
p379
g4
(g8
S'\xbcx\x92\xd6\x05L\xf8?'
p380
tp381
Rp382
sS'id'
p383
I17726
sS'name'
p384
S'Cats (1998)'
p385
ssI17727
(dp386
S'data_time'
p387
F2.924828052520752
sS'r2'
p388
g4
(g8
S'\x10\xbeZ\xa69\xf4\xc9?'
p389
tp390
Rp391
sS'regr_time'
p392
F39.06287693977356
sS'mse'
p393
g4
(g8
S'{G\x05\x17A\xdc\xeb?'
p394
tp395
Rp396
sS'id'
p397
I17727
sS'name'
p398
S"Elizabeth Taylor: The Last Time I Saw Paris/Father's Little Dividend (1954)"
p399
ssI17728
(dp400
S'data_time'
p401
F2.0448970794677734
sS'r2'
p402
g4
(g8
S'\xe8\xe2\xe6\x1a\xfd?\xcb\xbf'
p403
tp404
Rp405
sS'regr_time'
p406
F19.084578037261963
sS'mse'
p407
g4
(g8
S'{\x9d\xab\x89\xd7\xc9\xf8?'
p408
tp409
Rp410
sS'id'
p411
I17728
sS'name'
p412
S'Me & Isaac Newton (2000)'
p413
ssI17729
(dp414
S'data_time'
p415
F1.7939438819885254
sS'r2'
p416
g4
(g8
S'\x18\xf5LT\xa5\xe0\xce\xbf'
p417
tp418
Rp419
sS'regr_time'
p420
F10.712098121643066
sS'mse'
p421
g4
(g8
S'\x98$\xc70\xd6C\xf7?'
p422
tp423
Rp424
sS'id'
p425
I17729
sS'name'
p426
S'Icebreaker (1999)'
p427
ssI17730
(dp428
S'data_time'
p429
F7.839668035507202
sS'r2'
p430
g4
(g8
S"\x14\x1a\x97\x89\x93'\xc9?"
p431
tp432
Rp433
sS'regr_time'
p434
F139.59909415245056
sS'mse'
p435
g4
(g8
S'\x1f\xbe\xaa4\xcc|\xe8?'
p436
tp437
Rp438
sS'id'
p439
I17730
sS'name'
p440
S'The Blob (1958)'
p441
ssI17731
(dp442
S'data_time'
p443
F3.013207197189331
sS'r2'
p444
g4
(g8
S'@\x94\x973\t\x81\x8a?'
p445
tp446
Rp447
sS'regr_time'
p448
F10.656783103942871
sS'mse'
p449
g4
(g8
S'\xdb\xb6+Q\xc3~\xd8?'
p450
tp451
Rp452
sS'id'
p453
I17731
sS'name'
p454
S'Death Mask (1998)'
p455
ssI17732
(dp456
S'data_time'
p457
F4.279234170913696
sS'r2'
p458
g4
(g8
S'@\xbe\x86\x0f~\x01\x9b\xbf'
p459
tp460
Rp461
sS'regr_time'
p462
F180.2257158756256
sS'mse'
p463
g4
(g8
S'\xc8\xc1m\xe3\x18\x12\xea?'
p464
tp465
Rp466
sS'id'
p467
I17732
sS'name'
p468
S'Open City (1945)'
p469
ssI17733
(dp470
S'data_time'
p471
F3.7183690071105957
sS'r2'
p472
g4
(g8
S'\xd8d\xe9\xfc\xde\xcf\xb9?'
p473
tp474
Rp475
sS'regr_time'
p476
F42.30995297431946
sS'mse'
p477
g4
(g8
S'nFC\xee\xd8a\xf1?'
p478
tp479
Rp480
sS'id'
p481
I17733
sS'name'
p482
S'13th Child: Legend of the Jersey Devil (2002)'
p483
ssI17734
(dp484
S'data_time'
p485
F3.8692469596862793
sS'r2'
p486
g4
(g8
S'HB\xfe*t\xac\xba?'
p487
tp488
Rp489
sS'regr_time'
p490
F18.79811692237854
sS'mse'
p491
g4
(g8
S'\x03fv_\xc0\xe6\xeb?'
p492
tp493
Rp494
sS'id'
p495
I17734
sS'name'
p496
S'Shanghai Ghetto (2002)'
p497
ssI17735
(dp498
S'data_time'
p499
F3.08876895904541
sS'r2'
p500
g4
(g8
S'\xf6C\xec@\xaf\x1c\xd4?'
p501
tp502
Rp503
sS'regr_time'
p504
F13.17628812789917
sS'mse'
p505
g4
(g8
S'D\xa2\x98Ss3\xf3?'
p506
tp507
Rp508
sS'id'
p509
I17735
sS'name'
p510
S'Type O Negative: After Dark (1998)'
p511
ssI17736
(dp512
S'data_time'
p513
F2.9488041400909424
sS'r2'
p514
g4
(g8
S'\xd8W\xa7\x8e\xdd2\xcd?'
p515
tp516
Rp517
sS'regr_time'
p518
F33.871034145355225
sS'mse'
p519
g4
(g8
S'>\x8d5\xfd\xd7\xa8\xef?'
p520
tp521
Rp522
sS'id'
p523
I17736
sS'name'
p524
S'Reptilian (1999)'
p525
ssI17737
(dp526
S'data_time'
p527
F3.473749876022339
sS'r2'
p528
g4
(g8
S'\x90w[\xa7\xc7\xa1\xc5?'
p529
tp530
Rp531
sS'regr_time'
p532
F34.79540705680847
sS'mse'
p533
g4
(g8
S'\xa0o#\x82\x81\x90\xf6?'
p534
tp535
Rp536
sS'id'
p537
I17737
sS'name'
p538
S'Frank Zappa: Does Humor Belong in Music? (1985)'
p539
ssI17738
(dp540
S'data_time'
p541
F3.5822319984436035
sS'r2'
p542
g4
(g8
S'\xec\xad\x82Hu\x9f\xc0?'
p543
tp544
Rp545
sS'regr_time'
p546
F97.02316308021545
sS'mse'
p547
g4
(g8
S'b\x0c\x9b\xf9\xdb{\xf7?'
p548
tp549
Rp550
sS'id'
p551
I17738
sS'name'
p552
S'Henry Rollins: Live at Luna Park (2004)'
p553
ssI17739
(dp554
S'data_time'
p555
F2.472012996673584
sS'r2'
p556
g4
(g8
S'xv>\x18"\x1c\xbb?'
p557
tp558
Rp559
sS'regr_time'
p560
F26.21183681488037
sS'mse'
p561
g4
(g8
S'^\x18&\xc4\xec\\\xeb?'
p562
tp563
Rp564
sS'id'
p565
I17739
sS'name'
p566
S'Dracula / The Strange Case of Dr. Jekyll and Mr. Hyde (1968)'
p567
ssI17740
(dp568
S'data_time'
p569
F7.369462013244629
sS'r2'
p570
g4
(g8
S'\xf8\xc5A\xc5\x87X\xce?'
p571
tp572
Rp573
sS'regr_time'
p574
F138.4384000301361
sS'mse'
p575
g4
(g8
S'\x8c/\xae r=\xeb?'
p576
tp577
Rp578
sS'id'
p579
I17740
sS'name'
p580
S'Shoot the Piano Player (1960)'
p581
ssI17741
(dp582
S'data_time'
p583
F4.141273021697998
sS'r2'
p584
g4
(g8
S"\x96\x03\xbf\x07'q\xd5?"
p585
tp586
Rp587
sS'regr_time'
p588
F183.63628602027893
sS'mse'
p589
g4
(g8
S'OP\xe3\xf7s`\xe4?'
p590
tp591
Rp592
sS'id'
p593
I17741
sS'name'
p594
S'Ginger Snaps 2: Unleashed (2004)'
p595
ssI17742
(dp596
S'data_time'
p597
F4.916175127029419
sS'r2'
p598
g4
(g8
S'\xc0\xf7\xca\x98\xedR\xa8?'
p599
tp600
Rp601
sS'regr_time'
p602
F75.91868782043457
sS'mse'
p603
g4
(g8
S'Z\xadL\xfa\x08\xfe\xe9?'
p604
tp605
Rp606
sS'id'
p607
I17742
sS'name'
p608
S'Catherine the Great (1995)'
p609
ssI17743
(dp610
S'data_time'
p611
F3.790274143218994
sS'r2'
p612
g4
(g8
S'\x00\x14\xd0(G\xbfS\xbf'
p613
tp614
Rp615
sS'regr_time'
p616
F156.41304183006287
sS'mse'
p617
g4
(g8
S'(\xc5l\x08Y\xcc\xf3?'
p618
tp619
Rp620
sS'id'
p621
I17743
sS'name'
p622
S'Better Luck Tomorrow (2003)'
p623
ssI17744
(dp624
S'data_time'
p625
F2.818366050720215
sS'r2'
p626
g4
(g8
S'|\xd8\xc9\x16\x99\x8d\xc4?'
p627
tp628
Rp629
sS'regr_time'
p630
F26.116622924804688
sS'mse'
p631
g4
(g8
S'\xf7v\xea\x9e\xec\xff\xfd?'
p632
tp633
Rp634
sS'id'
p635
I17744
sS'name'
p636
S'NASCAR: Tony Stewart Smoke (2004)'
p637
ssI17745
(dp638
S'data_time'
p639
F2.7905900478363037
sS'r2'
p640
g4
(g8
S'\x88\x04\x89r)x\xd2?'
p641
tp642
Rp643
sS'regr_time'
p644
F77.41044402122498
sS'mse'
p645
g4
(g8
S'+\xe3\x9a\xc5w\x94\xf1?'
p646
tp647
Rp648
sS'id'
p649
I17745
sS'name'
p650
S'Russell Simmons Presents Def Poetry: Season 1 (2002)'
p651
ssI17746
(dp652
S'data_time'
p653
F3.36684513092041
sS'r2'
p654
g4
(g8
S'\x92\x89\x98\xacJk\xd4?'
p655
tp656
Rp657
sS'regr_time'
p658
F101.56339311599731
sS'mse'
p659
g4
(g8
S'\x19\xb6\x00\x86\xe10\xea?'
p660
tp661
Rp662
sS'id'
p663
I17746
sS'name'
p664
S'Godzilla & Mothra: Battle for Earth / Vs. King Ghidora (1991)'
p665
ssI17747
(dp666
S'data_time'
p667
F1.343498945236206
sS'r2'
p668
g4
(g8
S'\xe0\xf0J]\xf9\xc8\xcd?'
p669
tp670
Rp671
sS'regr_time'
p672
F54.54660081863403
sS'mse'
p673
g4
(g8
S'\xb6\xdc\xf8Y\x80F\xf2?'
p674
tp675
Rp676
sS'id'
p677
I17747
sS'name'
p678
S'Eric Clapton: 24 Nights (1991)'
p679
ssI17748
(dp680
S'data_time'
p681
F1.1392269134521484
sS'r2'
p682
g4
(g8
S'\xb6\xfc-\xce\xaec\xd3?'
p683
tp684
Rp685
sS'regr_time'
p686
F21.445341110229492
sS'mse'
p687
g4
(g8
S'|a\xcb\x01\x1d\xf2\xf3?'
p688
tp689
Rp690
sS'id'
p691
I17748
sS'name'
p692
S'Dog the Bounty Hunter: The Best of Season 1 (2005)'
p693
ssI17749
(dp694
S'data_time'
p695
F0.5077288150787354
sS'r2'
p696
g4
(g8
S'\xc8\xdfD-\xfc\x00\xc7\xbf'
p697
tp698
Rp699
sS'regr_time'
p700
F5.118431091308594
sS'mse'
p701
g4
(g8
S'W\xc26\xff\xff\x95\xf2?'
p702
tp703
Rp704
sS'id'
p705
I17749
sS'name'
p706
S'No End (1985)'
p707
ssI17750
(dp708
S'data_time'
p709
F6.0111799240112305
sS'r2'
p710
g4
(g8
S' \x17\x06\x8e\xcc\x9c\xdb?'
p711
tp712
Rp713
sS'regr_time'
p714
F9.793170928955078
sS'mse'
p715
g4
(g8
S'2\x9a\xd9\x04\xd2\x0f\xf8?'
p716
tp717
Rp718
sS'id'
p719
I17750
sS'name'
p720
S'The Hee Haw Collection: Vol. 4 (2005)'
p721
ssI17751
(dp722
S'data_time'
p723
F4.764761924743652
sS'r2'
p724
g4
(g8
S'\xda3\xe3&.5\xe4?'
p725
tp726
Rp727
sS'regr_time'
p728
F151.86376285552979
sS'mse'
p729
g4
(g8
S'\x80\x8a\x05\xcd\xb5\\\xdd?'
p730
tp731
Rp732
sS'id'
p733
I17751
sS'name'
p734
S'Highlander: Season 2 (1993)'
p735
ssI17752
(dp736
S'data_time'
p737
F4.97627592086792
sS'r2'
p738
g4
(g8
S'@\x19s\t\x8fo\x9a\xbf'
p739
tp740
Rp741
sS'regr_time'
p742
F118.50554203987122
sS'mse'
p743
g4
(g8
S'\x97)hIE*\xf3?'
p744
tp745
Rp746
sS'id'
p747
I17752
sS'name'
p748
S'Out of Order (2003)'
p749
ssI17753
(dp750
S'data_time'
p751
F4.163585186004639
sS'r2'
p752
g4
(g8
S'\x98\xbfr`\xcf\x1a\xcd\xbf'
p753
tp754
Rp755
sS'regr_time'
p756
F24.45218014717102
sS'mse'
p757
g4
(g8
S'T\xa4\x11/\xd5\xca\xfb?'
p758
tp759
Rp760
sS'id'
p761
I17753
sS'name'
p762
S'Maslin Beach (1997)'
p763
ssI17754
(dp764
S'data_time'
p765
F3.6329691410064697
sS'r2'
p766
g4
(g8
S'\x86\xb3\x935S\xc4\xd2?'
p767
tp768
Rp769
sS'regr_time'
p770
F61.74939799308777
sS'mse'
p771
g4
(g8
S'\xa82\x8a\xa1\xb4*\xf4?'
p772
tp773
Rp774
sS'id'
p775
I17754
sS'name'
p776
S'On the Ropes (1999)'
p777
ssI17755
(dp778
S'data_time'
p779
F4.294410943984985
sS'r2'
p780
g4
(g8
S'0\x04\xee\xe2\x8bt\xd3?'
p781
tp782
Rp783
sS'regr_time'
p784
F17.797521829605103
sS'mse'
p785
g4
(g8
S'\xce\x82e\xafy\x16\xf1?'
p786
tp787
Rp788
sS'id'
p789
I17755
sS'name'
p790
S'L/R: Licensed by Royalty (2003)'
p791
ssI17756
(dp792
S'data_time'
p793
F3.523874044418335
sS'r2'
p794
g4
(g8
S'\xf4\xc8\x85\x83&\x9e\xc8?'
p795
tp796
Rp797
sS'regr_time'
p798
F53.62806987762451
sS'mse'
p799
g4
(g8
S'm\xd9\x11\xa6\xff\xac\xe1?'
p800
tp801
Rp802
sS'id'
p803
I17756
sS'name'
p804
S'The 39 Steps (1935)'
p805
ssI17757
(dp806
S'data_time'
p807
F3.390233039855957
sS'r2'
p808
g4
(g8
S' O\xdb\xd5\x82\xc2\xbb?'
p809
tp810
Rp811
sS'regr_time'
p812
F72.62779998779297
sS'mse'
p813
g4
(g8
S'\xab\x1a \xc7\xeb\xe2\xeb?'
p814
tp815
Rp816
sS'id'
p817
I17757
sS'name'
p818
S'Ulysses S. Grant: Warrior / President: American Experience (2002)'
p819
ssI17758
(dp820
S'data_time'
p821
F3.5015339851379395
sS'r2'
p822
g4
(g8
S'\x88,\xd0j\x84\xbd\xd3?'
p823
tp824
Rp825
sS'regr_time'
p826
F141.50844407081604
sS'mse'
p827
g4
(g8
S'\xc8\x08B\xec\xb5+\xec?'
p828
tp829
Rp830
sS'id'
p831
I17758
sS'name'
p832
S'Prophecy (1979)'
p833
ssI17759
(dp834
S'data_time'
p835
F2.5479462146759033
sS'r2'
p836
g4
(g8
S'\xd0\xa7\xcdle\x1e\xaf?'
p837
tp838
Rp839
sS'regr_time'
p840
F33.7923321723938
sS'mse'
p841
g4
(g8
S'1\x8f\xa9\xd8\xb8\xda\xf6?'
p842
tp843
Rp844
sS'id'
p845
I17759
sS'name'
p846
S'The Big Bird Cage (1972)'
p847
ssI17760
(dp848
S'data_time'
p849
F6.940985918045044
sS'r2'
p850
g4
(g8
S'\xdcW\x0b\x16\xaa\t\xc2?'
p851
tp852
Rp853
sS'regr_time'
p854
F51.46815013885498
sS'mse'
p855
g4
(g8
S'\xad\xa7\x81\xb11\t\xeb?'
p856
tp857
Rp858
sS'id'
p859
I17760
sS'name'
p860
S'Lightning Bug (2004)'
p861
ssI17761
(dp862
S'data_time'
p863
F4.2383949756622314
sS'r2'
p864
g4
(g8
S' \xa9\x944\xc0@\xb4?'
p865
tp866
Rp867
sS'regr_time'
p868
F62.06584715843201
sS'mse'
p869
g4
(g8
S'\xd2\x9a\xaf\xc0{\x9e\xe9?'
p870
tp871
Rp872
sS'id'
p873
I17761
sS'name'
p874
S'Levity (2003)'
p875
ssI17762
(dp876
S'data_time'
p877
F4.26984715461731
sS'r2'
p878
g4
(g8
S'\xf8\xdc65,\xcd\xb5?'
p879
tp880
Rp881
sS'regr_time'
p882
F150.59967589378357
sS'mse'
p883
g4
(g8
S'\xcf\xda0\xbf\r\xac\xe8?'
p884
tp885
Rp886
sS'id'
p887
I17762
sS'name'
p888
S'Gattaca (1997)'
p889
ssI17763
(dp890
S'data_time'
p891
F4.464524984359741
sS'r2'
p892
g4
(g8
S'\x92\x02\xb4\xf8\xe7\xd6\xd7?'
p893
tp894
Rp895
sS'regr_time'
p896
F173.39877796173096
sS'mse'
p897
g4
(g8
S'W\xa9\xe6\x8a2z\xe9?'
p898
tp899
Rp900
sS'id'
p901
I17763
sS'name'
p902
S'Interiors (1978)'
p903
ssI17764
(dp904
S'data_time'
p905
F4.611562013626099
sS'r2'
p906
g4
(g8
S'\xc0\x83~\xa2\xe5\x98\x82?'
p907
tp908
Rp909
sS'regr_time'
p910
F121.3044970035553
sS'mse'
p911
g4
(g8
S"\x97\xbc\x9fQ't\xee?"
p912
tp913
Rp914
sS'id'
p915
I17764
sS'name'
p916
S'Shakespeare in Love (1998)'
p917
ssI17765
(dp918
S'data_time'
p919
F3.4237618446350098
sS'r2'
p920
g4
(g8
S'n*\t\xcb<n\xd6?'
p921
tp922
Rp923
sS'regr_time'
p924
F39.50068187713623
sS'mse'
p925
g4
(g8
S'\xc5{\xd6\xee\xdc\xe3\xe7?'
p926
tp927
Rp928
sS'id'
p929
I17765
sS'name'
p930
S"Godzilla's Revenge (1969)"
p931
ssI17766
(dp932
S'data_time'
p933
F3.621735095977783
sS'r2'
p934
g4
(g8
S'@\x85"\xfcE_\xad?'
p935
tp936
Rp937
sS'regr_time'
p938
F76.00203800201416
sS'mse'
p939
g4
(g8
S'\x95\xf1\x0cLd\xb2\xf2?'
p940
tp941
Rp942
sS'id'
p943
I17766
sS'name'
p944
S'Where the Wild Things Are and Other Maurice Sendak Stories (2002)'
p945
ssI17767
(dp946
S'data_time'
p947
F2.8045599460601807
sS'r2'
p948
g4
(g8
S'\xc0\xd9v3h5\x97?'
p949
tp950
Rp951
sS'regr_time'
p952
F23.43869185447693
sS'mse'
p953
g4
(g8
S"DFx'x\xb1\xe5?"
p954
tp955
Rp956
sS'id'
p957
I17767
sS'name'
p958
S'Fidel Castro: American Experience (2004)'
p959
ssI17768
(dp960
S'data_time'
p961
F2.8222131729125977
sS'r2'
p962
g4
(g8
S'\xd8#\x11\xc5mQ\xce?'
p963
tp964
Rp965
sS'regr_time'
p966
F75.95294117927551
sS'mse'
p967
g4
(g8
S'fRX\xd6xP\xed?'
p968
tp969
Rp970
sS'id'
p971
I17768
sS'name'
p972
S'Epoch (2000)'
p973
ssI17769
(dp974
S'data_time'
p975
F1.2908811569213867
sS'r2'
p976
g4
(g8
S'0\x05\xed\r\xfe]\xb0?'
p977
tp978
Rp979
sS'regr_time'
p980
F48.279261112213135
sS'mse'
p981
g4
(g8
S'\x9d\x01>\xa5e\xd3\xee?'
p982
tp983
Rp984
sS'id'
p985
I17769
sS'name'
p986
S'The Company (2003)'
p987
ssI17770
(dp988
S'data_time'
p989
F6.748897075653076
sS'r2'
p990
g4
(g8
S'\x00\x00\x00\x00\x00\x00\xf0?'
p991
tp992
Rp993
sS'regr_time'
p994
F0.8288838863372803
sS'mse'
p995
g4
(g8
S'\x00\x00\x00\x00\x00\x00\x00\x00'
p996
tp997
Rp998
sS'id'
p999
I17770
sS'name'
p1000
S'Alien Hunter (2003)'
p1001
ss.