(dp0
I1
(dp1
S'data_time'
p2
F0.9033420085906982
sS'r2'
p3
cnumpy.core.multiarray
scalar
p4
(cnumpy
dtype
p5
(S'f8'
p6
I0
I1
tp7
Rp8
(I3
S'<'
p9
NNNI-1
I-1
I0
tp10
bS'X\x9fL\xf9H0\xc5\xbf'
p11
tp12
Rp13
sS'regr_time'
p14
F54.155714988708496
sS'mse'
p15
g4
(g8
S'\xebJ\x10\x86k\x16\xf2?'
p16
tp17
Rp18
sS'id'
p19
I1
sS'name'
p20
S'Dinosaur Planet (2003)'
p21
ssI2
(dp22
S'data_time'
p23
F10.909188032150269
sS'r2'
p24
g4
(g8
S'\xacXJ\xf0;g\xd7?'
p25
tp26
Rp27
sS'regr_time'
p28
F24.64771604537964
sS'mse'
p29
g4
(g8
S'\xa7?\xae\x82\xff\x8b\xf1?'
p30
tp31
Rp32
sS'id'
p33
I2
sS'name'
p34
S'Isle of Man TT 2004 Review (2004)'
p35
ssI3
(dp36
S'data_time'
p37
F7.782417058944702
sS'r2'
p38
g4
(g8
S'\x10\x8a)\x07\x1a&\xac?'
p39
tp40
Rp41
sS'regr_time'
p42
F95.62058615684509
sS'mse'
p43
g4
(g8
S'_\x7fr?"\x05\xf2?'
p44
tp45
Rp46
sS'id'
p47
I3
sS'name'
p48
S'Character (1997)'
p49
ssI4
(dp50
S'data_time'
p51
F3.1531808376312256
sS'r2'
p52
g4
(g8
S'\xe8 \x00BE!\xd2\xbf'
p53
tp54
Rp55
sS'regr_time'
p56
F11.812220811843872
sS'mse'
p57
g4
(g8
S'l#\x1b3\x19\xe2\xfd?'
p58
tp59
Rp60
sS'id'
p61
I4
sS'name'
p62
S"Paula Abdul's Get Up & Dance (1994)"
p63
ssI5
(dp64
S'data_time'
p65
F4.529937028884888
sS'r2'
p66
g4
(g8
S'\x85\x95\x01\xbdJ\xa6\xe0?'
p67
tp68
Rp69
sS'regr_time'
p70
F83.43013715744019
sS'mse'
p71
g4
(g8
S'\xe0X&\xceC \xea?'
p72
tp73
Rp74
sS'id'
p75
I5
sS'name'
p76
S'The Rise and Fall of ECW (2004)'
p77
ssI6
(dp78
S'data_time'
p79
F4.487031936645508
sS'r2'
p80
g4
(g8
S'2\xfc\xb8\xcb\xbb\xf2\xd7?'
p81
tp82
Rp83
sS'regr_time'
p84
F61.64734387397766
sS'mse'
p85
g4
(g8
S'@\xbc\x1f\xf2y\x84\xee?'
p86
tp87
Rp88
sS'id'
p89
I6
sS'name'
p90
S'Sick (1997)'
p91
ssI7
(dp92
S'data_time'
p93
F3.2029480934143066
sS'r2'
p94
g4
(g8
S'`a\xce\x82\xf4\xc5\xac?'
p95
tp96
Rp97
sS'regr_time'
p98
F7.028095006942749
sS'mse'
p99
g4
(g8
S'o!Zv\x08\xa6\xf0?'
p100
tp101
Rp102
sS'id'
p103
I7
sS'name'
p104
S'8 Man (1992)'
p105
ssI8
(dp106
S'data_time'
p107
F1.1171321868896484
sS'r2'
p108
g4
(g8
S'\xb8\xde\x8aj\xf7\xaf\xe1\xbf'
p109
tp110
Rp111
sS'regr_time'
p112
F39.569714069366455
sS'mse'
p113
g4
(g8
S'r\x9b\x83g\x8c\x12\x04@'
p114
tp115
Rp116
sS'id'
p117
I8
sS'name'
p118
S'What the #$*! Do We Know!? (2004)'
p119
ssI9
(dp120
S'data_time'
p121
F0.8504440784454346
sS'r2'
p122
g4
(g8
S'\x00\\\xbd\r\xc4\x84\\\xbf'
p123
tp124
Rp125
sS'regr_time'
p126
F6.488976955413818
sS'mse'
p127
g4
(g8
S'\xdf\x8e\xe8\x90\xadH\xfa?'
p128
tp129
Rp130
sS'id'
p131
I9
sS'name'
p132
S"Class of Nuke 'Em High 2 (1991)"
p133
ssI10
(dp134
S'data_time'
p135
F0.8628900051116943
sS'r2'
p136
g4
(g8
S'\x10\xe5\xa7\x07\x9e;\xa9?'
p137
tp138
Rp139
sS'regr_time'
p140
F18.59740400314331
sS'mse'
p141
g4
(g8
S'Dq\x90\x0b\xd1\xbd\xed?'
p142
tp143
Rp144
sS'id'
p145
I10
sS'name'
p146
S'Fighter (2001)'
p147
ssI11
(dp148
S'data_time'
p149
F0.6834259033203125
sS'r2'
p150
g4
(g8
S'xK\xd6=\x8b\x1e\xb8?'
p151
tp152
Rp153
sS'regr_time'
p154
F3.810014009475708
sS'mse'
p155
g4
(g8
S'n\x1e\x95s\x9f\x90\xf3?'
p156
tp157
Rp158
sS'id'
p159
I11
sS'name'
p160
S'Full Frame: Documentary Shorts (1999)'
p161
ssI12
(dp162
S'data_time'
p163
F1.0174109935760498
sS'r2'
p164
g4
(g8
S'@g\xbe\xd5Ei\xad?'
p165
tp166
Rp167
sS'regr_time'
p168
F47.77758002281189
sS'mse'
p169
g4
(g8
S'\xbcQ\xed\xf0\xd7\x9c\xf0?'
p170
tp171
Rp172
sS'id'
p173
I12
sS'name'
p174
S'My Favorite Brunette (1947)'
p175
ssI13
(dp176
S'data_time'
p177
F11.906559228897095
sS'r2'
p178
g4
(g8
S'|%\xc65\xcc\xc1\xd1?'
p179
tp180
Rp181
sS'regr_time'
p182
F18.725362062454224
sS'mse'
p183
g4
(g8
S'V\xf1z\xdd\xfb\xa3\xd6?'
p184
tp185
Rp186
sS'id'
p187
I13
sS'name'
p188
S'Lord of the Rings: The Return of the King: Extended Edition: Bonus Material (2003)'
p189
ssI14
(dp190
S'data_time'
p191
F18.678457975387573
sS'r2'
p192
g4
(g8
S'\x8c|\xfc\x98+\x91\xe1\xbf'
p193
tp194
Rp195
sS'regr_time'
p196
F17.37397313117981
sS'mse'
p197
g4
(g8
S":\x89\xbe\x7f'\xa7\xf4?"
p198
tp199
Rp200
sS'id'
p201
I14
sS'name'
p202
S'Nature: Antarctica (1982)'
p203
ssI15
(dp204
S'data_time'
p205
F4.516861915588379
sS'r2'
p206
g4
(g8
S'\xa0\x1bRh\xd1M\xcf\xbf'
p207
tp208
Rp209
sS'regr_time'
p210
F30.060593843460083
sS'mse'
p211
g4
(g8
S'\xbe*\xa6\x99\x82\xf3\xfa?'
p212
tp213
Rp214
sS'id'
p215
I15
sS'name'
p216
S'Neil Diamond: Greatest Hits Live (1988)'
p217
ssI16
(dp218
S'data_time'
p219
F3.338036060333252
sS'r2'
p220
g4
(g8
S'\xe8\xfb\xc4\x13o#\xd4?'
p221
tp222
Rp223
sS'regr_time'
p224
F82.59809684753418
sS'mse'
p225
g4
(g8
S'\xdd\xee\xa6\xe9\x99>\xe9?'
p226
tp227
Rp228
sS'id'
p229
I16
sS'name'
p230
S'Screamers (1996)'
p231
ssI17
(dp232
S'data_time'
p233
F15.417175054550171
sS'r2'
p234
g4
(g8
S'\xde<\xd6\x0c\xd5;\xf6\xbf'
p235
tp236
Rp237
sS'regr_time'
p238
F43.79490804672241
sS'mse'
p239
g4
(g8
S'm\xc7\xfe\xd2T\x1e\x02@'
p240
tp241
Rp242
sS'id'
p243
I17
sS'name'
p244
S'7 Seconds (2005)'
p245
ssI18
(dp246
S'data_time'
p247
F1.306915044784546
sS'r2'
p248
g4
(g8
S't\xf7\x90y\xa5\xd0\xdd\xbf'
p249
tp250
Rp251
sS'regr_time'
p252
F45.87493705749512
sS'mse'
p253
g4
(g8
S'\xc6F\\\n4o\xf5?'
p254
tp255
Rp256
sS'id'
p257
I18
sS'name'
p258
S'Immortal Beloved (1994)'
p259
ssI19
(dp260
S'data_time'
p261
F1.0747628211975098
sS'r2'
p262
g4
(g8
S'\xe0\xcaA\x17\x8d^\xc8\xbf'
p263
tp264
Rp265
sS'regr_time'
p266
F30.983999013900757
sS'mse'
p267
g4
(g8
S'\xd2C\x03\t\x08\xcc\xf1?'
p268
tp269
Rp270
sS'id'
p271
I19
sS'name'
p272
S"By Dawn's Early Light (2000)"
p273
ssI20
(dp274
S'data_time'
p275
F14.197561979293823
sS'r2'
p276
g4
(g8
S'\xa4\xafT\xd8\xca\xdd\xc7?'
p277
tp278
Rp279
sS'regr_time'
p280
F10.925814867019653
sS'mse'
p281
g4
(g8
S'E\xaaa\xfft\xa0\xf1?'
p282
tp283
Rp284
sS'id'
p285
I20
sS'name'
p286
S'Seeta Aur Geeta (1972)'
p287
ssI21
(dp288
S'data_time'
p289
F0.7476871013641357
sS'r2'
p290
g4
(g8
S'\xe81\xd7j\xb5\xb3\xd5\xbf'
p291
tp292
Rp293
sS'regr_time'
p294
F19.465805053710938
sS'mse'
p295
g4
(g8
S'f\xf9\xa6\xb6\x14\xe6\xee?'
p296
tp297
Rp298
sS'id'
p299
I21
sS'name'
p300
S'Strange Relations (2002)'
p301
ssI22
(dp302
S'data_time'
p303
F5.579053163528442
sS'r2'
p304
g4
(g8
S'8\x9c\xf0n\x10\x85\xb8?'
p305
tp306
Rp307
sS'regr_time'
p308
F20.1697940826416
sS'mse'
p309
g4
(g8
S'\xc64l\xef*b\xf2?'
p310
tp311
Rp312
sS'id'
p313
I22
sS'name'
p314
S'Chump Change (2000)'
p315
ssI23
(dp316
S'data_time'
p317
F2.509754180908203
sS'r2'
p318
g4
(g8
S'@\xa6 V~\xd9\x92\xbf'
p319
tp320
Rp321
sS'regr_time'
p322
F49.27001905441284
sS'mse'
p323
g4
(g8
S'\x18;y7[\xfb\xf6?'
p324
tp325
Rp326
sS'id'
p327
I23
sS'name'
p328
S"Clifford: Clifford Saves the Day! / Clifford's Fluffiest Friend Cleo (2001)"
p329
ssI24
(dp330
S'data_time'
p331
F2.957404851913452
sS'r2'
p332
g4
(g8
S'\xd84\x90uo\xd9\xdb?'
p333
tp334
Rp335
sS'regr_time'
p336
F89.23240494728088
sS'mse'
p337
g4
(g8
S'\x18\x07\xe2\x90\x9a\x8e\xe3?'
p338
tp339
Rp340
sS'id'
p341
I24
sS'name'
p342
S'My Bloody Valentine (1981)'
p343
ssI25
(dp344
S'data_time'
p345
F25.660972833633423
sS'r2'
p346
g4
(g8
S'\x186v\x89\xa0F\xe1?'
p347
tp348
Rp349
sS'regr_time'
p350
F90.17588090896606
sS'mse'
p351
g4
(g8
S'i\xa5\x13\x14G\xc1\xde?'
p352
tp353
Rp354
sS'id'
p355
I25
sS'name'
p356
S'Inspector Morse 31: Death Is Now My Neighbour (1997)'
p357
ssI26
(dp358
S'data_time'
p359
F3.0456130504608154
sS'r2'
p360
g4
(g8
S'@z\xd6Q\x1a\x99\xd9\xbf'
p361
tp362
Rp363
sS'regr_time'
p364
F44.30629897117615
sS'mse'
p365
g4
(g8
S'\x14"O\'>\x01\xfb?'
p366
tp367
Rp368
sS'id'
p369
I26
sS'name'
p370
S'Never Die Alone (2004)'
p371
ssI27
(dp372
S'data_time'
p373
F2.151323080062866
sS'r2'
p374
g4
(g8
S'\x08\xd3\x00\x88\xab\xa9\xba?'
p375
tp376
Rp377
sS'regr_time'
p378
F14.828643083572388
sS'mse'
p379
g4
(g8
S'\xb3%@m\x86\xc4\xf7?'
p380
tp381
Rp382
sS'id'
p383
I27
sS'name'
p384
S"Sesame Street: Elmo's World: The Street We Live On (1962)"
p385
ssI28
(dp386
S'data_time'
p387
F1.381943941116333
sS'r2'
p388
g4
(g8
S'\xe4\xa9p\x95\x12i\xe1\xbf'
p389
tp390
Rp391
sS'regr_time'
p392
F41.01307392120361
sS'mse'
p393
g4
(g8
S'a\xc3c\xa0\xcb\xd0\xfb?'
p394
tp395
Rp396
sS'id'
p397
I28
sS'name'
p398
S'Lilo and Stitch (2002)'
p399
ssI29
(dp400
S'data_time'
p401
F1.2097511291503906
sS'r2'
p402
g4
(g8
S'h\x901\xb16\x15\xc1\xbf'
p403
tp404
Rp405
sS'regr_time'
p406
F24.230273008346558
sS'mse'
p407
g4
(g8
S'ItlP\xf2\xee\xf4?'
p408
tp409
Rp410
sS'id'
p411
I29
sS'name'
p412
S'Boycott (2001)'
p413
ssI30
(dp414
S'data_time'
p415
F3.566890001296997
sS'r2'
p416
g4
(g8
S'\xeeR\xc9\n\x92\xf8\xe7\xbf'
p417
tp418
Rp419
sS'regr_time'
p420
F13.987394094467163
sS'mse'
p421
g4
(g8
S'!!wu|\xde\xf9?'
p422
tp423
Rp424
sS'id'
p425
I30
sS'name'
p426
S"Something's Gotta Give (2003)"
p427
ssI31
(dp428
S'data_time'
p429
F0.7922639846801758
sS'r2'
p430
g4
(g8
S'0+\x87(\xa8\xa8\xc1\xbf'
p431
tp432
Rp433
sS'regr_time'
p434
F19.816747188568115
sS'mse'
p435
g4
(g8
S"&'\xae\xcb\xa3\x99\xf8?"
p436
tp437
Rp438
sS'id'
p439
I31
sS'name'
p440
S'Classic Albums: Meat Loaf: Bat Out of Hell (1999)'
p441
ssI32
(dp442
S'data_time'
p443
F23.895870208740234
sS'r2'
p444
g4
(g8
S'`\x97\xbdt\xe3g\xc7?'
p445
tp446
Rp447
sS'regr_time'
p448
F69.73027992248535
sS'mse'
p449
g4
(g8
S'\xca\x1b\x93\xdb\x1e\x8c\xf3?'
p450
tp451
Rp452
sS'id'
p453
I32
sS'name'
p454
S"ABC Primetime: Mel Gibson's The Passion of the Christ (2004)"
p455
ssI33
(dp456
S'data_time'
p457
F1.8816039562225342
sS'r2'
p458
g4
(g8
S'\xb0\x84\xf0\xff{6\xca\xbf'
p459
tp460
Rp461
sS'regr_time'
p462
F90.10304689407349
sS'mse'
p463
g4
(g8
S'\xbd\x97\x8e\x86v\xf6\xf7?'
p464
tp465
Rp466
sS'id'
p467
I33
sS'name'
p468
S'Aqua Teen Hunger Force: Vol. 1 (2000)'
p469
ssI34
(dp470
S'data_time'
p471
F7.551695108413696
sS'r2'
p472
g4
(g8
S'\xd8/\x8aR\xdf\xe5\xc6\xbf'
p473
tp474
Rp475
sS'regr_time'
p476
F11.160190105438232
sS'mse'
p477
g4
(g8
S'a\xa5\x19w\xa2\xbf\xfe?'
p478
tp479
Rp480
sS'id'
p481
I34
sS'name'
p482
S"Ashtanga Yoga: Beginner's Practice with Nicki Doane (2003)"
p483
ssI35
(dp484
S'data_time'
p485
F1.8113980293273926
sS'r2'
p486
g4
(g8
S'P-\xd9\x03\xf6f\xb0\xbf'
p487
tp488
Rp489
sS'regr_time'
p490
F73.9851438999176
sS'mse'
p491
g4
(g8
S'(\xd6\xfc!\xf4\xb9\xf8?'
p492
tp493
Rp494
sS'id'
p495
I35
sS'name'
p496
S'Ferngully 2: The Magical Rescue (2000)'
p497
ssI36
(dp498
S'data_time'
p499
F1.2066121101379395
sS'r2'
p500
g4
(g8
S'd\x85\x8dMQ\xba\xd4\xbf'
p501
tp502
Rp503
sS'regr_time'
p504
F40.717633962631226
sS'mse'
p505
g4
(g8
S'L\x89\x14|\xc6\x84\xf7?'
p506
tp507
Rp508
sS'id'
p509
I36
sS'name'
p510
S'Lady Chatterley (1992)'
p511
ssI37
(dp512
S'data_time'
p513
F2.7729990482330322
sS'r2'
p514
g4
(g8
S'D(\x8d\xcd9\xfe\xd2?'
p515
tp516
Rp517
sS'regr_time'
p518
F11.979625225067139
sS'mse'
p519
g4
(g8
S'\xf95g\xeb\xf0b\xeb?'
p520
tp521
Rp522
sS'id'
p523
I37
sS'name'
p524
S"Zatoichi's Conspiracy (1973)"
p525
ssI38
(dp526
S'data_time'
p527
F20.996145009994507
sS'r2'
p528
g4
(g8
S'(\x1e\xdeRtO\xca\xbf'
p529
tp530
Rp531
sS'regr_time'
p532
F34.71631407737732
sS'mse'
p533
g4
(g8
S'\x9d}S\xe7\xf1\xd9\xf9?'
p534
tp535
Rp536
sS'id'
p537
I38
sS'name'
p538
S'Daydream Obsession (2003)'
p539
ssI39
(dp540
S'data_time'
p541
F1.0778629779815674
sS'r2'
p542
g4
(g8
S'0\xb4E\xa1\xc0[\xd5\xbf'
p543
tp544
Rp545
sS'regr_time'
p546
F29.478291034698486
sS'mse'
p547
g4
(g8
S'\xfb"\xcbk\x16T\xfb?'
p548
tp549
Rp550
sS'id'
p551
I39
sS'name'
p552
S'Love Reinvented (2000)'
p553
ssI40
(dp554
S'data_time'
p555
F1.725027084350586
sS'r2'
p556
g4
(g8
S'D"\xd6\xfb\xce\xc8\xd0\xbf'
p557
tp558
Rp559
sS'regr_time'
p560
F9.722359895706177
sS'mse'
p561
g4
(g8
S'\xa7\x1c\xbe\xfdY\xfe\xf4?'
p562
tp563
Rp564
sS'id'
p565
I40
sS'name'
p566
S'Pitcher and the Pin-Up (2004)'
p567
ssI41
(dp568
S'data_time'
p569
F0.6604659557342529
sS'r2'
p570
g4
(g8
S'\x90\x8f\xae)$\xb5\xbc\xbf'
p571
tp572
Rp573
sS'regr_time'
p574
F6.1284239292144775
sS'mse'
p575
g4
(g8
S'\xfe\x9cK\x15\xf9\x84\xe3?'
p576
tp577
Rp578
sS'id'
p579
I41
sS'name'
p580
S'Horror Vision (2000)'
p581
ssI42
(dp582
S'data_time'
p583
F0.9932019710540771
sS'r2'
p584
g4
(g8
S'P\xdf\xd5\xd4Z\xa6\xbd\xbf'
p585
tp586
Rp587
sS'regr_time'
p588
F16.045160055160522
sS'mse'
p589
g4
(g8
S'\xbe\xd8\xd1>\x81Z\xe9?'
p590
tp591
Rp592
sS'id'
p593
I42
sS'name'
p594
S'Searching for Paradise (2002)'
p595
ssI43
(dp596
S'data_time'
p597
F12.526540994644165
sS'r2'
p598
g4
(g8
S'\xf0\x1ff\x14\x89\x80\xc7\xbf'
p599
tp600
Rp601
sS'regr_time'
p602
F13.270525932312012
sS'mse'
p603
g4
(g8
S'\x82\x07\xc1\x162\x90\xf8?'
p604
tp605
Rp606
sS'id'
p607
I43
sS'name'
p608
S'Silent Service (2000)'
p609
ssI44
(dp610
S'data_time'
p611
F8.230515003204346
sS'r2'
p612
g4
(g8
S'\xe4\xa3\x11m-k\xd3\xbf'
p613
tp614
Rp615
sS'regr_time'
p616
F66.8416600227356
sS'mse'
p617
g4
(g8
S'\xef\x89.n\x12U\xf1?'
p618
tp619
Rp620
sS'id'
p621
I44
sS'name'
p622
S'Spitfire Grill (1996)'
p623
ssI45
(dp624
S'data_time'
p625
F1.3665180206298828
sS'r2'
p626
g4
(g8
S'\x00h\xb0\xb4[\xa0\xb9\xbf'
p627
tp628
Rp629
sS'regr_time'
p630
F94.22225093841553
sS'mse'
p631
g4
(g8
S'\xdc\x13F\xc3\xe9\x0c\xea?'
p632
tp633
Rp634
sS'id'
p635
I45
sS'name'
p636
S'The Love Letter (1999)'
p637
ssI46
(dp638
S'data_time'
p639
F1.3883130550384521
sS'r2'
p640
g4
(g8
S'`\xdcy\xeb%-\xbf?'
p641
tp642
Rp643
sS'regr_time'
p644
F86.59954500198364
sS'mse'
p645
g4
(g8
S'\xa4\x03\xaayH[\xef?'
p646
tp647
Rp648
sS'id'
p649
I46
sS'name'
p650
S'Rudolph the Red-Nosed Reindeer (1964)'
p651
ssI47
(dp652
S'data_time'
p653
F26.12403106689453
sS'r2'
p654
g4
(g8
S'\xd4\xf2\xb7r\xed,\xc3?'
p655
tp656
Rp657
sS'regr_time'
p658
F34.79362988471985
sS'mse'
p659
g4
(g8
S'\x9c\x1b\xbd\xb6\x7f\xe9\xef?'
p660
tp661
Rp662
sS'id'
p663
I47
sS'name'
p664
S'The Bad and the Beautiful (1952)'
p665
ssI48
(dp666
S'data_time'
p667
F1.462691068649292
sS'r2'
p668
g4
(g8
S'\xe8\x8d+7\xa3\x12\xcc?'
p669
tp670
Rp671
sS'regr_time'
p672
F40.97018599510193
sS'mse'
p673
g4
(g8
S'nE\xe8\x19\x04\xcc\xee?'
p674
tp675
Rp676
sS'id'
p677
I48
sS'name'
p678
S'Justice League (2001)'
p679
ssI49
(dp680
S'data_time'
p681
F0.7561941146850586
sS'r2'
p682
g4
(g8
S'\xc0C\xfd\x8f`\xc3\xa0?'
p683
tp684
Rp685
sS'regr_time'
p686
F2.8874030113220215
sS'mse'
p687
g4
(g8
S'S\xb46Ur\xcd\xf5?'
p688
tp689
Rp690
sS'id'
p691
I49
sS'name'
p692
S'Devo: The Complete Truth About De-evolution (2003)'
p693
ssI50
(dp694
S'data_time'
p695
F0.9363701343536377
sS'r2'
p696
g4
(g8
S'\x00\xeb&\xe3\x98\x94\x8d\xbf'
p697
tp698
Rp699
sS'regr_time'
p700
F22.36079692840576
sS'mse'
p701
g4
(g8
S'\x8d\xea\t70\x07\xec?'
p702
tp703
Rp704
sS'id'
p705
I50
sS'name'
p706
S'A Yank in the R.A.F. (1941)'
p707
ssI51
(dp708
S'data_time'
p709
F0.6477599143981934
sS'r2'
p710
g4
(g8
S'@\x81KXW\xd9\xbe\xbf'
p711
tp712
Rp713
sS'regr_time'
p714
F13.090970993041992
sS'mse'
p715
g4
(g8
S'\xab\x8d\x16>\x99\xa6\xff?'
p716
tp717
Rp718
sS'id'
p719
I51
sS'name'
p720
S'Jonah: A VeggieTales Movie: Bonus Material (2002)'
p721
ssI52
(dp722
S'data_time'
p723
F4.6721930503845215
sS'r2'
p724
g4
(g8
S'\xc4a\xa3\xacE\xec\xd1\xbf'
p725
tp726
Rp727
sS'regr_time'
p728
F62.78853511810303
sS'mse'
p729
g4
(g8
S'\xa0\x9fD\xd3\xd2\xad\xf0?'
p730
tp731
Rp732
sS'id'
p733
I52
sS'name'
p734
S'The Weather Underground (2002)'
p735
ssI53
(dp736
S'data_time'
p737
F0.7379639148712158
sS'r2'
p738
g4
(g8
S'\x842_t5\xee\xdd\xbf'
p739
tp740
Rp741
sS'regr_time'
p742
F11.808915853500366
sS'mse'
p743
g4
(g8
S'\x96,rR\x82\x1c\xe2?'
p744
tp745
Rp746
sS'id'
p747
I53
sS'name'
p748
S'The Bonesetter (2003)'
p749
ssI54
(dp750
S'data_time'
p751
F2.2087509632110596
sS'r2'
p752
g4
(g8
S'\x80\xb6\x8b\xae\xbc\r\x89\xbf'
p753
tp754
Rp755
sS'regr_time'
p756
F28.15043592453003
sS'mse'
p757
g4
(g8
S'N\x1d\xe7\xad\xa1\x81\xf6?'
p758
tp759
Rp760
sS'id'
p761
I54
sS'name'
p762
S"We're Not Married (1952)"
p763
ssI55
(dp764
S'data_time'
p765
F2.0654449462890625
sS'r2'
p766
g4
(g8
S'\xea\xb8\x8a\xfc\x1e\x97\xd4?'
p767
tp768
Rp769
sS'regr_time'
p770
F79.84619903564453
sS'mse'
p771
g4
(g8
S'\x9cg\xf0\x02\xef\xca\xef?'
p772
tp773
Rp774
sS'id'
p775
I55
sS'name'
p776
S'Jade (1995)'
p777
ssI56
(dp778
S'data_time'
p779
F1.30958890914917
sS'r2'
p780
g4
(g8
S'\xe0\xb15@*\t\xa6\xbf'
p781
tp782
Rp783
sS'regr_time'
p784
F85.55657815933228
sS'mse'
p785
g4
(g8
S'd\xab\xcd\x08\xa1\xcb\xf0?'
p786
tp787
Rp788
sS'id'
p789
I56
sS'name'
p790
S'Carandiru (2004)'
p791
ssI57
(dp792
S'data_time'
p793
F1.3507921695709229
sS'r2'
p794
g4
(g8
S'\x10&\xa4\x80\xe6\x9f\xb8\xbf'
p795
tp796
Rp797
sS'regr_time'
p798
F49.41118407249451
sS'mse'
p799
g4
(g8
S'Z\xd5$\xed\xca\xcd\xf1?'
p800
tp801
Rp802
sS'id'
p803
I57
sS'name'
p804
S'Richard III (1995)'
p805
ssI58
(dp806
S'data_time'
p807
F1.4853730201721191
sS'r2'
p808
g4
(g8
S'\x94\xc3\ni\t@\xd1?'
p809
tp810
Rp811
sS'regr_time'
p812
F26.061540126800537
sS'mse'
p813
g4
(g8
S'\x8f\xe0\xcb\x8a\xbf!\xe7?'
p814
tp815
Rp816
sS'id'
p817
I58
sS'name'
p818
S'Dragonheart (1996)'
p819
ssI59
(dp820
S'data_time'
p821
F0.7209291458129883
sS'r2'
p822
g4
(g8
S'@\xcb\x87j\x19"\x9d\xbf'
p823
tp824
Rp825
sS'regr_time'
p826
F8.561022996902466
sS'mse'
p827
g4
(g8
S'P\x01c\xa5\xfa]\xf0?'
p828
tp829
Rp830
sS'id'
p831
I59
sS'name'
p832
S'Sex and the Beauties (2003)'
p833
ssI60
(dp834
S'data_time'
p835
F0.8107359409332275
sS'r2'
p836
g4
(g8
S'\x003\x01\x83\xa4\x15\x9d?'
p837
tp838
Rp839
sS'regr_time'
p840
F15.799867153167725
sS'mse'
p841
g4
(g8
S'\xbd\xf1\xb4\x97\x98j\xf0?'
p842
tp843
Rp844
sS'id'
p845
I60
sS'name'
p846
S'The Libertine (1969)'
p847
ssI61
(dp848
S'data_time'
p849
F0.9434788227081299
sS'r2'
p850
g4
(g8
S'\xc6\x83\xcd\xfdC\xf8\xf9\xbf'
p851
tp852
Rp853
sS'regr_time'
p854
F17.57291889190674
sS'mse'
p855
g4
(g8
S'$\x07\x96\x19\x00\x91\x10@'
p856
tp857
Rp858
sS'id'
p859
I61
sS'name'
p860
S'Ricky Martin: One Night Only (1999)'
p861
ssI62
(dp862
S'data_time'
p863
F2.120326042175293
sS'r2'
p864
g4
(g8
S'\xb0\x1a\xb52\x16\xca\xb8\xbf'
p865
tp866
Rp867
sS'regr_time'
p868
F25.917083978652954
sS'mse'
p869
g4
(g8
S'dh\xc7\xfe$\xc9\xf2?'
p870
tp871
Rp872
sS'id'
p873
I62
sS'name'
p874
S"Ken Burns' America: Empire of the Air (1991)"
p875
ssI63
(dp876
S'data_time'
p877
F1.642190933227539
sS'r2'
p878
g4
(g8
S' ~\x8a\xa9\\\x8c\x9c?'
p879
tp880
Rp881
sS'regr_time'
p882
F32.48424291610718
sS'mse'
p883
g4
(g8
S"m8\x9b\xb4's\xe9?"
p884
tp885
Rp886
sS'id'
p887
I63
sS'name'
p888
S'Crash Dive (1943)'
p889
ssI64
(dp890
S'data_time'
p891
F3.6611359119415283
sS'r2'
p892
g4
(g8
S'@K?\x83\xb1\xf7\x99\xbf'
p893
tp894
Rp895
sS'regr_time'
p896
F15.09228801727295
sS'mse'
p897
g4
(g8
S'\x039\x06\x11\x11\x16\xf7?'
p898
tp899
Rp900
sS'id'
p901
I64
sS'name'
p902
S'Outside the Law (2001)'
p903
ssI65
(dp904
S'data_time'
p905
F1.5087718963623047
sS'r2'
p906
g4
(g8
S'\x0c\xbc\x18\xf7\xde\x1b\xd0\xbf'
p907
tp908
Rp909
sS'regr_time'
p910
F19.584160089492798
sS'mse'
p911
g4
(g8
S'\xbf\xd0\x0cRtx\xfd?'
p912
tp913
Rp914
sS'id'
p915
I65
sS'name'
p916
S'Lost in the Pershing Point Hotel (2000)'
p917
ssI66
(dp918
S'data_time'
p919
F4.635213851928711
sS'r2'
p920
g4
(g8
S'\xe05\xa7\x017(\xb9?'
p921
tp922
Rp923
sS'regr_time'
p924
F33.428571939468384
sS'mse'
p925
g4
(g8
S'e\xbaJ}\x92\xbc\xf0?'
p926
tp927
Rp928
sS'id'
p929
I66
sS'name'
p930
S'Barbarian Queen 2 (1989)'
p931
ssI67
(dp932
S'data_time'
p933
F3.8071401119232178
sS'r2'
p934
g4
(g8
S'\xc0\x14\xfa\x8a\xe5\t\xcd\xbf'
p935
tp936
Rp937
sS'regr_time'
p938
F34.013543128967285
sS'mse'
p939
g4
(g8
S']\x8e\xde\xe0\xa1%\xf5?'
p940
tp941
Rp942
sS'id'
p943
I67
sS'name'
p944
S'Vampire Journals (1997)'
p945
ssI68
(dp946
S'data_time'
p947
F6.78049898147583
sS'r2'
p948
g4
(g8
S'\x14y\xeb\xb8+5\xc3?'
p949
tp950
Rp951
sS'regr_time'
p952
F98.75360894203186
sS'mse'
p953
g4
(g8
S'\xf23\x95\xd6e%\xf3?'
p954
tp955
Rp956
sS'id'
p957
I68
sS'name'
p958
S'Invader Zim (2004)'
p959
ssI69
(dp960
S'data_time'
p961
F29.214139938354492
sS'r2'
p962
g4
(g8
S'1\xabK\xde\xc9\xc7\xe0?'
p963
tp964
Rp965
sS'regr_time'
p966
F10.87611198425293
sS'mse'
p967
g4
(g8
S'\xfb|\x9a\xcaW\xae\xef?'
p968
tp969
Rp970
sS'id'
p971
I69
sS'name'
p972
S'WWE: Armageddon 2003 (2003)'
p973
ssI70
(dp974
S'data_time'
p975
F1.033139944076538
sS'r2'
p976
g4
(g8
S'`M\xff\x80Dz\xbe\xbf'
p977
tp978
Rp979
sS'regr_time'
p980
F18.24978494644165
sS'mse'
p981
g4
(g8
S'\x89?\xd6X\x88\xc0\xf5?'
p982
tp983
Rp984
sS'id'
p985
I70
sS'name'
p986
S'Tai Chi: The 24 Forms (1999)'
p987
ssI71
(dp988
S'data_time'
p989
F1.5219700336456299
sS'r2'
p990
g4
(g8
S'\xbcFL\xd0\xd3(\xc7?'
p991
tp992
Rp993
sS'regr_time'
p994
F63.44804286956787
sS'mse'
p995
g4
(g8
S'a\x81\xaeJ\xca\x14\xe8?'
p996
tp997
Rp998
sS'id'
p999
I71
sS'name'
p1000
S'Maya Lin: A Strong Clear Vision (1995)'
p1001
ssI72
(dp1002
S'data_time'
p1003
F1.0582780838012695
sS'r2'
p1004
g4
(g8
S'\x00x\xcc\xdbk)\xd1\xbf'
p1005
tp1006
Rp1007
sS'regr_time'
p1008
F32.62633681297302
sS'mse'
p1009
g4
(g8
S'\x8eg\x08\xb9\x1b\x90\xff?'
p1010
tp1011
Rp1012
sS'id'
p1013
I72
sS'name'
p1014
S'At Home Among Strangers (1974)'
p1015
ssI73
(dp1016
S'data_time'
p1017
F2.5622730255126953
sS'r2'
p1018
g4
(g8
S'\xd8\xd2!\x9f\xfc\x19\xcd\xbf'
p1019
tp1020
Rp1021
sS'regr_time'
p1022
F64.74666094779968
sS'mse'
p1023
g4
(g8
S'$;LN9\xd2\xf4?'
p1024
tp1025
Rp1026
sS'id'
p1027
I73
sS'name'
p1028
S'Davy Crockett: 50th Anniversary Double Feature (1954)'
p1029
ssI74
(dp1030
S'data_time'
p1031
F2.4147961139678955
sS'r2'
p1032
g4
(g8
S'\x08:\x1aRz\x00\xc8\xbf'
p1033
tp1034
Rp1035
sS'regr_time'
p1036
F30.437793970108032
sS'mse'
p1037
g4
(g8
S'\x88\x88:{}<\xf5?'
p1038
tp1039
Rp1040
sS'id'
p1041
I74
sS'name'
p1042
S'6ixtynin9 (1999)'
p1043
ssI75
(dp1044
S'data_time'
p1045
F1.6138579845428467
sS'r2'
p1046
g4
(g8
S'\x98\x9a\xe7\x02\xfc\xb0\xc9\xbf'
p1047
tp1048
Rp1049
sS'regr_time'
p1050
F13.383911848068237
sS'mse'
p1051
g4
(g8
S'Q\xd3\x18\xed\xee\xcf\xf1?'
p1052
tp1053
Rp1054
sS'id'
p1055
I75
sS'name'
p1056
S'Grind (1997)'
p1057
ssI76
(dp1058
S'data_time'
p1059
F1.415734052658081
sS'r2'
p1060
g4
(g8
S'\xd8\x0c4z\xf1\xa8\xb2?'
p1061
tp1062
Rp1063
sS'regr_time'
p1064
F86.43214797973633
sS'mse'
p1065
g4
(g8
S':<\n\x0e\xc2L\xec?'
p1066
tp1067
Rp1068
sS'id'
p1069
I76
sS'name'
p1070
S'I Love Lucy: Season 2 (1952)'
p1071
ssI77
(dp1072
S'data_time'
p1073
F1.3463780879974365
sS'r2'
p1074
g4
(g8
S'\xc0%~\xe7Q\xd4\xb3\xbf'
p1075
tp1076
Rp1077
sS'regr_time'
p1078
F46.89540195465088
sS'mse'
p1079
g4
(g8
S's=\xed\xc3\x92\x9b\xf2?'
p1080
tp1081
Rp1082
sS'id'
p1083
I77
sS'name'
p1084
S'Congo (1995)'
p1085
ssI78
(dp1086
S'data_time'
p1087
F8.045330047607422
sS'r2'
p1088
g4
(g8
S'\xd0Rv\x84\xcb\xab\xc6?'
p1089
tp1090
Rp1091
sS'regr_time'
p1092
F54.019875049591064
sS'mse'
p1093
g4
(g8
S'\xef?j\x01\xf0-\xf2?'
p1094
tp1095
Rp1096
sS'id'
p1097
I78
sS'name'
p1098
S'Jingle All the Way (1996)'
p1099
ssI79
(dp1100
S'data_time'
p1101
F1.6929690837860107
sS'r2'
p1102
g4
(g8
S'`/\x8f\xf0\xf7\x92\xbf\xbf'
p1103
tp1104
Rp1105
sS'regr_time'
p1106
F30.476277112960815
sS'mse'
p1107
g4
(g8
S'\x94\x9d\x18V\xb8\xed\xee?'
p1108
tp1109
Rp1110
sS'id'
p1111
I79
sS'name'
p1112
S'The Killing (1956)'
p1113
ssI80
(dp1114
S'data_time'
p1115
F0.9736061096191406
sS'r2'
p1116
g4
(g8
S'@j}!"\x8d\xb3\xbf'
p1117
tp1118
Rp1119
sS'regr_time'
p1120
F9.190344095230103
sS'mse'
p1121
g4
(g8
S'\xa4P&\xc3\xe5\x14\xf2?'
p1122
tp1123
Rp1124
sS'id'
p1125
I80
sS'name'
p1126
S'Winter Kills (1979)'
p1127
ssI81
(dp1128
S'data_time'
p1129
F1.2191200256347656
sS'r2'
p1130
g4
(g8
S'\x1cD|X\xd2\xde\xd7?'
p1131
tp1132
Rp1133
sS'regr_time'
p1134
F82.1284019947052
sS'mse'
p1135
g4
(g8
S'\x96\x95\xe9)Rw\xe4?'
p1136
tp1137
Rp1138
sS'id'
p1139
I81
sS'name'
p1140
S'Antarctica: IMAX (1991)'
p1141
ssI82
(dp1142
S'data_time'
p1143
F3.7724859714508057
sS'r2'
p1144
g4
(g8
S'\x00\x02\xf0\x18\xd6\xd4\xc5?'
p1145
tp1146
Rp1147
sS'regr_time'
p1148
F13.789789915084839
sS'mse'
p1149
g4
(g8
S'\xa97\xc3\x9eU\n\xf2?'
p1150
tp1151
Rp1152
sS'id'
p1153
I82
sS'name'
p1154
S'The Frogmen (1951)'
p1155
ssI83
(dp1156
S'data_time'
p1157
F2.3725340366363525
sS'r2'
p1158
g4
(g8
S'0\xcd\xb48;\xe1\xcb\xbf'
p1159
tp1160
Rp1161
sS'regr_time'
p1162
F90.25879788398743
sS'mse'
p1163
g4
(g8
S'\x17,5;\x8c\xc5\xe7?'
p1164
tp1165
Rp1166
sS'id'
p1167
I83
sS'name'
p1168
S'Silkwood (1983)'
p1169
ssI84
(dp1170
S'data_time'
p1171
F1.3379740715026855
sS'r2'
p1172
g4
(g8
S'\x00\x87uS\xf27\x9a\xbf'
p1173
tp1174
Rp1175
sS'regr_time'
p1176
F69.07072615623474
sS'mse'
p1177
g4
(g8
S'\xf5@\x8fk\xef\x86\xf3?'
p1178
tp1179
Rp1180
sS'id'
p1181
I84
sS'name'
p1182
S'The Powerpuff Girls Movie (2002)'
p1183
ssI85
(dp1184
S'data_time'
p1185
F1.751255989074707
sS'r2'
p1186
g4
(g8
S'\xa0d\xf4"r\xf2\xd5\xbf'
p1187
tp1188
Rp1189
sS'regr_time'
p1190
F23.223438024520874
sS'mse'
p1191
g4
(g8
S'.\xc8v=\xae\xa3\xf4?'
p1192
tp1193
Rp1194
sS'id'
p1195
I85
sS'name'
p1196
S'Elfen Lied (2005)'
p1197
ssI86
(dp1198
S'data_time'
p1199
F3.8102450370788574
sS'r2'
p1200
g4
(g8
S'\xec\xfa\xfd\x81)\xe2\xc4?'
p1201
tp1202
Rp1203
sS'regr_time'
p1204
F20.418987035751343
sS'mse'
p1205
g4
(g8
S'\x1e\xbb\xf0\x15\xba\xcf\xf1?'
p1206
tp1207
Rp1208
sS'id'
p1209
I86
sS'name'
p1210
S'Iron Monkey 2 (1996)'
p1211
ssI87
(dp1212
S'data_time'
p1213
F16.57855796813965
sS'r2'
p1214
g4
(g8
S'\xd8(\x8a\x98w\xdf\xc1\xbf'
p1215
tp1216
Rp1217
sS'regr_time'
p1218
F10.425675868988037
sS'mse'
p1219
g4
(g8
S'p=\xbc\xb7~/\xf8?'
p1220
tp1221
Rp1222
sS'id'
p1223
I87
sS'name'
p1224
S'Louder Than Bombs (2002)'
p1225
ssI88
(dp1226
S'data_time'
p1227
F6.014322996139526
sS'r2'
p1228
g4
(g8
S'\xfc\x1fq@K\x9e\xdd\xbf'
p1229
tp1230
Rp1231
sS'regr_time'
p1232
F59.146048069000244
sS'mse'
p1233
g4
(g8
S'[\xeb*\x91\xd9\xa2\xfc?'
p1234
tp1235
Rp1236
sS'id'
p1237
I88
sS'name'
p1238
S'Record of Lodoss War: Chronicles of the Heroic Knight (1998)'
p1239
ssI89
(dp1240
S'data_time'
p1241
F1.3013648986816406
sS'r2'
p1242
g4
(g8
S'\x90\xa7X\xa7\x86.\xc3\xbf'
p1243
tp1244
Rp1245
sS'regr_time'
p1246
F12.549433946609497
sS'mse'
p1247
g4
(g8
S'tI1\x85\x0e\xeb\xf3?'
p1248
tp1249
Rp1250
sS'id'
p1251
I89
sS'name'
p1252
S'Chain of Command (2000)'
p1253
ssI90
(dp1254
S'data_time'
p1255
F0.8973109722137451
sS'r2'
p1256
g4
(g8
S'\x08Y>\xa4\xea\x96\xc7\xbf'
p1257
tp1258
Rp1259
sS'regr_time'
p1260
F28.78804087638855
sS'mse'
p1261
g4
(g8
S'.\x00\x8aM/*\xf1?'
p1262
tp1263
Rp1264
sS'id'
p1265
I90
sS'name'
p1266
S'The Lemon Drop Kid (1951)'
p1267
ssI91
(dp1268
S'data_time'
p1269
F1.5760481357574463
sS'r2'
p1270
g4
(g8
S'\x80\x11\x8c@2n\xd8\xbf'
p1271
tp1272
Rp1273
sS'regr_time'
p1274
F53.33778405189514
sS'mse'
p1275
g4
(g8
S'\xe6\xc9e&>\xf4\xfa?'
p1276
tp1277
Rp1278
sS'id'
p1279
I91
sS'name'
p1280
S'WWE: Royal Rumble 2005 (2005)'
p1281
ssI92
(dp1282
S'data_time'
p1283
F10.474944114685059
sS'r2'
p1284
g4
(g8
S'r\x86\xafGC\xd6\xdc?'
p1285
tp1286
Rp1287
sS'regr_time'
p1288
F22.23893904685974
sS'mse'
p1289
g4
(g8
S'\xa7k\x19\x96\x9c\x10\xf1?'
p1290
tp1291
Rp1292
sS'id'
p1293
I92
sS'name'
p1294
S"ECW: Cyberslam '99 (2002)"
p1295
ssI93
(dp1296
S'data_time'
p1297
F4.49106502532959
sS'r2'
p1298
g4
(g8
S'\xc0\x08\xee\xd0 \x8f\xc5\xbf'
p1299
tp1300
Rp1301
sS'regr_time'
p1302
F23.300759077072144
sS'mse'
p1303
g4
(g8
S'C\xd9\x009\xc5k\xf0?'
p1304
tp1305
Rp1306
sS'id'
p1307
I93
sS'name'
p1308
S'They Came Back (2004)'
p1309
ssI94
(dp1310
S'data_time'
p1311
F3.8922791481018066
sS'r2'
p1312
g4
(g8
S'`\x08uY\xd9\x91\xc2\xbf'
p1313
tp1314
Rp1315
sS'regr_time'
p1316
F31.756299018859863
sS'mse'
p1317
g4
(g8
S't\x0b[\xbf\x99\xd9\xf5?'
p1318
tp1319
Rp1320
sS'id'
p1321
I94
sS'name'
p1322
S'G3: Live in Concert (2000)'
p1323
ssI95
(dp1324
S'data_time'
p1325
F4.331501007080078
sS'r2'
p1326
g4
(g8
S'P\xdb_\xa1\xd0\x82\xde\xbf'
p1327
tp1328
Rp1329
sS'regr_time'
p1330
F91.72316312789917
sS'mse'
p1331
g4
(g8
S'\xf5\n\xe7\x01\xff\x9a\xf8?'
p1332
tp1333
Rp1334
sS'id'
p1335
I95
sS'name'
p1336
S'Dona Herlinda and Her Son (1985)'
p1337
ssI96
(dp1338
S'data_time'
p1339
F1.136488914489746
sS'r2'
p1340
g4
(g8
S'\x90~\xae\xc2\xfd\xaa\xad?'
p1341
tp1342
Rp1343
sS'regr_time'
p1344
F44.880287170410156
sS'mse'
p1345
g4
(g8
S'Lm\xf8\x0b7(\xf1?'
p1346
tp1347
Rp1348
sS'id'
p1349
I96
sS'name'
p1350
S'Inside the Space Station (2000)'
p1351
ssI97
(dp1352
S'data_time'
p1353
F1.3304049968719482
sS'r2'
p1354
g4
(g8
S'\xce+\xce\xdb\x17\xd7\xe0\xbf'
p1355
tp1356
Rp1357
sS'regr_time'
p1358
F54.86671209335327
sS'mse'
p1359
g4
(g8
S'3\xf1{\xd5\xb7;\xf3?'
p1360
tp1361
Rp1362
sS'id'
p1363
I97
sS'name'
p1364
S'Mostly Martha (2002)'
p1365
ssI98
(dp1366
S'data_time'
p1367
F0.8740990161895752
sS'r2'
p1368
g4
(g8
S'\xf0kE\xabk\xa7\xd3\xbf'
p1369
tp1370
Rp1371
sS'regr_time'
p1372
F11.5124671459198
sS'mse'
p1373
g4
(g8
S'b;k\x86\xf7\x92\xe7?'
p1374
tp1375
Rp1376
sS'id'
p1377
I98
sS'name'
p1378
S'The Battle of Algiers: Bonus Material (1965)'
p1379
ssI99
(dp1380
S'data_time'
p1381
F1.9600601196289062
sS'r2'
p1382
g4
(g8
S'\x84$8\xf4\x8e\x8b\xd2\xbf'
p1383
tp1384
Rp1385
sS'regr_time'
p1386
F10.746033906936646
sS'mse'
p1387
g4
(g8
S'dd\xa5\xaa\xfa\xe8\xf8?'
p1388
tp1389
Rp1390
sS'id'
p1391
I99
sS'name'
p1392
S'A Fishy Story (1989)'
p1393
ssI100
(dp1394
S'data_time'
p1395
F0.7592248916625977
sS'r2'
p1396
g4
(g8
S't\xed\xb0JH\xa6\xd1?'
p1397
tp1398
Rp1399
sS'regr_time'
p1400
F7.6849000453948975
sS'mse'
p1401
g4
(g8
S'\x1d\x98R_@G\xe4?'
p1402
tp1403
Rp1404
sS'id'
p1405
I100
sS'name'
p1406
S'Sam the Iron Bridge (1993)'
p1407
ss.
