(dp0
I17700
(dp1
S'data_time'
p2
F0.9416859149932861
sS'r2'
p3
cnumpy.core.multiarray
scalar
p4
(cnumpy
dtype
p5
(S'f8'
p6
I0
I1
tp7
Rp8
(I3
S'<'
p9
NNNI-1
I-1
I0
tp10
bS'\x00\x81\xf8\xfd\xc9Ym?'
p11
tp12
Rp13
sS'regr_time'
p14
F22.926769971847534
sS'mse'
p15
g4
(g8
S'\xf9X\x18X\x87\xd0\xf3?'
p16
tp17
Rp18
sS'id'
p19
I17700
sS'name'
p20
S'Mysteries of the Deep: Legendary Shipwrecks: Secrets of the Titanic (1986)'
p21
ssI17701
(dp22
S'data_time'
p23
F2.785029888153076
sS'r2'
p24
g4
(g8
S'\xccZ\xe8\xba\xc8c\xc3?'
p25
tp26
Rp27
sS'regr_time'
p28
F58.09156799316406
sS'mse'
p29
g4
(g8
S'$p7S\x9b?\xf6?'
p30
tp31
Rp32
sS'id'
p33
I17701
sS'name'
p34
S'Fellini Satyricon (1969)'
p35
ssI17702
(dp36
S'data_time'
p37
F1.3865420818328857
sS'r2'
p38
g4
(g8
S'B\xc6h\xa9\xc7K\xd4?'
p39
tp40
Rp41
sS'regr_time'
p42
F56.60043787956238
sS'mse'
p43
g4
(g8
S'\xc9\x12r7,\x13\xec?'
p44
tp45
Rp46
sS'id'
p47
I17702
sS'name'
p48
S'Comic Book: The Movie (2004)'
p49
ssI17703
(dp50
S'data_time'
p51
F7.82242488861084
sS'r2'
p52
g4
(g8
S'X8\x88>\xa9\n\xda\xbf'
p53
tp54
Rp55
sS'regr_time'
p56
F60.927650928497314
sS'mse'
p57
g4
(g8
S'I"\xb7\x1c(\xa9\xfa?'
p58
tp59
Rp60
sS'id'
p61
I17703
sS'name'
p62
S'Hulk (2003)'
p63
ssI17704
(dp64
S'data_time'
p65
F3.496166944503784
sS'r2'
p66
g4
(g8
S'\x88\x16.\xa6\x04R\xd8?'
p67
tp68
Rp69
sS'regr_time'
p70
F54.77627110481262
sS'mse'
p71
g4
(g8
S'1\xec\xf9\xa0|^\xea?'
p72
tp73
Rp74
sS'id'
p75
I17704
sS'name'
p76
S'Taboo (1999)'
p77
ssI17705
(dp78
S'data_time'
p79
F8.841022968292236
sS'r2'
p80
g4
(g8
S'4\x0c2\x0c`\xef\xe2\xbf'
p81
tp82
Rp83
sS'regr_time'
p84
F9.048838138580322
sS'mse'
p85
g4
(g8
S'\x8e\x1d\x14\xa4\xdaa\xfa?'
p86
tp87
Rp88
sS'id'
p89
I17705
sS'name'
p90
S'Evil Alien Conquerors (2002)'
p91
ssI17706
(dp92
S'data_time'
p93
F2.1173410415649414
sS'r2'
p94
g4
(g8
S'\x0c^\x88\xcd~\x19\xd3\xbf'
p95
tp96
Rp97
sS'regr_time'
p98
F15.988439083099365
sS'mse'
p99
g4
(g8
S'>\x9d\xb7\x9eQ\n\x00@'
p100
tp101
Rp102
sS'id'
p103
I17706
sS'name'
p104
S'Najica Blitz Tactics (2001)'
p105
ssI17707
(dp106
S'data_time'
p107
F2.0164928436279297
sS'r2'
p108
g4
(g8
S'&\x86\xd3\x8c,\xb5\xe5\xbf'
p109
tp110
Rp111
sS'regr_time'
p112
F24.655269861221313
sS'mse'
p113
g4
(g8
S'\xaa\x1a\x1b\x99\x9a\x1a\x00@'
p114
tp115
Rp116
sS'id'
p117
I17707
sS'name'
p118
S'Latter Days (2004)'
p119
ssI17708
(dp120
S'data_time'
p121
F1.314532995223999
sS'r2'
p122
g4
(g8
S'0\x8dk\xc9\x88\xb3\xd0?'
p123
tp124
Rp125
sS'regr_time'
p126
F20.29080605506897
sS'mse'
p127
g4
(g8
S'\x9fPJh\xc0\xc5\xe9?'
p128
tp129
Rp130
sS'id'
p131
I17708
sS'name'
p132
S'Trembling Before G-d (2001)'
p133
ssI17709
(dp134
S'data_time'
p135
F1.1756360530853271
sS'r2'
p136
g4
(g8
S'\xc8~\x97\xdfh\x92\xcc\xbf'
p137
tp138
Rp139
sS'regr_time'
p140
F1.447749137878418
sS'mse'
p141
g4
(g8
S'\xdft\n\xaf\xfa[\xee?'
p142
tp143
Rp144
sS'id'
p145
I17709
sS'name'
p146
S'A River Runs Through It (1992)'
p147
ssI17710
(dp148
S'data_time'
p149
F0.7980430126190186
sS'r2'
p150
g4
(g8
S'\xf0\xe0\x85\xbd\xf3b\xb9\xbf'
p151
tp152
Rp153
sS'regr_time'
p154
F14.622416973114014
sS'mse'
p155
g4
(g8
S'\x8b\xf9\x12Pw\xda\xf3?'
p156
tp157
Rp158
sS'id'
p159
I17710
sS'name'
p160
S'Going Down (2003)'
p161
ssI17711
(dp162
S'data_time'
p163
F10.815534830093384
sS'r2'
p164
g4
(g8
S' \xe6\xd4@g\x7f\xb5?'
p165
tp166
Rp167
sS'regr_time'
p168
F70.53116798400879
sS'mse'
p169
g4
(g8
S'\x86_\r\xab\x04\xfe\xf0?'
p170
tp171
Rp172
sS'id'
p173
I17711
sS'name'
p174
S'The Diary of Ellen Rimbauer (2003)'
p175
ssI17712
(dp176
S'data_time'
p177
F3.0835869312286377
sS'r2'
p178
g4
(g8
S'\x82\xdd\x8fH\x08\x04\xd5?'
p179
tp180
Rp181
sS'regr_time'
p182
F10.539523124694824
sS'mse'
p183
g4
(g8
S'\x12T#\x05\xef\x02\xf9?'
p184
tp185
Rp186
sS'id'
p187
I17712
sS'name'
p188
S'The Doobie Brothers: Live at Wolf Trap (2004)'
p189
ssI17713
(dp190
S'data_time'
p191
F7.553563117980957
sS'r2'
p192
g4
(g8
S'\xf0\xd8\xbb\x8c\x7f\xa1\xc0?'
p193
tp194
Rp195
sS'regr_time'
p196
F26.612518072128296
sS'mse'
p197
g4
(g8
S'\x10>&\xf1\x83i\xf5?'
p198
tp199
Rp200
sS'id'
p201
I17713
sS'name'
p202
S'WWE: Summerslam 2004 (2004)'
p203
ssI17714
(dp204
S'data_time'
p205
F3.1629860401153564
sS'r2'
p206
g4
(g8
S'&z\xdf\x10\xd2;\xff\xbf'
p207
tp208
Rp209
sS'regr_time'
p210
F45.99504899978638
sS'mse'
p211
g4
(g8
S'\xf2\x94\x98\xfe\xf8\x99\x10@'
p212
tp213
Rp214
sS'id'
p215
I17714
sS'name'
p216
S'The Little Mermaid (1989)'
p217
ssI17715
(dp218
S'data_time'
p219
F7.85508394241333
sS'r2'
p220
g4
(g8
S'\xae\xb9#\x882\x10\xd9?'
p221
tp222
Rp223
sS'regr_time'
p224
F58.987065076828
sS'mse'
p225
g4
(g8
S'\xbb\x84@|\x82\xc1\xe5?'
p226
tp227
Rp228
sS'id'
p229
I17715
sS'name'
p230
S'The Adventures of Ma and Pa Kettle: Vol. 1 (1947)'
p231
ssI17716
(dp232
S'data_time'
p233
F1.581592082977295
sS'r2'
p234
g4
(g8
S'\x98\xc7\x126\xa7_\xba?'
p235
tp236
Rp237
sS'regr_time'
p238
F48.36453199386597
sS'mse'
p239
g4
(g8
S'\xef\x00\tc\x8a~\xf1?'
p240
tp241
Rp242
sS'id'
p243
I17716
sS'name'
p244
S'Some Folks Call it a Sling Blade (1993)'
p245
ssI17717
(dp246
S'data_time'
p247
F4.975222110748291
sS'r2'
p248
g4
(g8
S'\x80@\xe9;0\xa0\x97?'
p249
tp250
Rp251
sS'regr_time'
p252
F10.789584159851074
sS'mse'
p253
g4
(g8
S'\xd8d\xe4\x11\x9c\xfb\xf4?'
p254
tp255
Rp256
sS'id'
p257
I17717
sS'name'
p258
S'Sol Bianca: The Legacy: Vol. 3: Going Home (1991)'
p259
ssI17718
(dp260
S'data_time'
p261
F1.596893072128296
sS'r2'
p262
g4
(g8
S'\xb0v\xec:H\xe9\xc4\xbf'
p263
tp264
Rp265
sS'regr_time'
p266
F7.7270121574401855
sS'mse'
p267
g4
(g8
S'\xdb:\\y\xb9\xa7\xf7?'
p268
tp269
Rp270
sS'id'
p271
I17718
sS'name'
p272
S'The Delta (1996)'
p273
ssI17719
(dp274
S'data_time'
p275
F1.277724027633667
sS'r2'
p276
g4
(g8
S'\xf0\x14\x8e\x82\xbc\x9a\xba\xbf'
p277
tp278
Rp279
sS'regr_time'
p280
F10.273648023605347
sS'mse'
p281
g4
(g8
S'\x99\xbb\x9aY\xbc}\xf9?'
p282
tp283
Rp284
sS'id'
p285
I17719
sS'name'
p286
S'The Europeans (1979)'
p287
ssI17720
(dp288
S'data_time'
p289
F0.6975929737091064
sS'r2'
p290
g4
(g8
S'\x00q\xca_G\xcc\x8f\xbf'
p291
tp292
Rp293
sS'regr_time'
p294
F7.4434239864349365
sS'mse'
p295
g4
(g8
S'9y\x8b\x0fB\x98\xf6?'
p296
tp297
Rp298
sS'id'
p299
I17720
sS'name'
p300
S'Pirates of the Plain (1999)'
p301
ssI17721
(dp302
S'data_time'
p303
F2.161269187927246
sS'r2'
p304
g4
(g8
S'\x00j\xb7\xe2\xabF\x95\xbf'
p305
tp306
Rp307
sS'regr_time'
p308
F27.42088007926941
sS'mse'
p309
g4
(g8
S'\x96\x15{\x904o\xf5?'
p310
tp311
Rp312
sS'id'
p313
I17721
sS'name'
p314
S'The Love Letter (1998)'
p315
ssI17722
(dp316
S'data_time'
p317
F4.086987018585205
sS'r2'
p318
g4
(g8
S'\x80\x05R\xfd\xf2\x00\x87\xbf'
p319
tp320
Rp321
sS'regr_time'
p322
F13.268338918685913
sS'mse'
p323
g4
(g8
S'\xb3\x00\x17\x9d}L\xf7?'
p324
tp325
Rp326
sS'id'
p327
I17722
sS'name'
p328
S'Faerie Tale Theatre: The Little Mermaid (1984)'
p329
ssI17723
(dp330
S'data_time'
p331
F5.295801877975464
sS'r2'
p332
g4
(g8
S'\x1c\x81ceD\xc4\xdc\xbf'
p333
tp334
Rp335
sS'regr_time'
p336
F70.94864296913147
sS'mse'
p337
g4
(g8
S'V0m\x83)\xc7\xf8?'
p338
tp339
Rp340
sS'id'
p341
I17723
sS'name'
p342
S'Redemption (2004)'
p343
ssI17724
(dp344
S'data_time'
p345
F4.837486982345581
sS'r2'
p346
g4
(g8
S'\x1a43J\xb5\x1c\xee\xbf'
p347
tp348
Rp349
sS'regr_time'
p350
F50.71829295158386
sS'mse'
p351
g4
(g8
S'\xe4\xb6Dy\xa3\xbf\xf9?'
p352
tp353
Rp354
sS'id'
p355
I17724
sS'name'
p356
S'Gettysburg (1993)'
p357
ssI17725
(dp358
S'data_time'
p359
F7.904552936553955
sS'r2'
p360
g4
(g8
S' \xfar)\\\x0e\xd9\xbf'
p361
tp362
Rp363
sS'regr_time'
p364
F62.335245847702026
sS'mse'
p365
g4
(g8
S'}\xd2\xe9B\x1d\x11\xf8?'
p366
tp367
Rp368
sS'id'
p369
I17725
sS'name'
p370
S"Jerry Seinfeld: I'm Telling You for the Last Time (1999)"
p371
ssI17726
(dp372
S'data_time'
p373
F4.856194019317627
sS'r2'
p374
g4
(g8
S'\xc0d\xe9\xb0)<\xd4\xbf'
p375
tp376
Rp377
sS'regr_time'
p378
F34.251485109329224
sS'mse'
p379
g4
(g8
S'8\x02)\x9eO\xab\x03@'
p380
tp381
Rp382
sS'id'
p383
I17726
sS'name'
p384
S'Cats (1998)'
p385
ssI17727
(dp386
S'data_time'
p387
F1.7852258682250977
sS'r2'
p388
g4
(g8
S'\xe0\xa2n\x9b! \xb4?'
p389
tp390
Rp391
sS'regr_time'
p392
F15.519423961639404
sS'mse'
p393
g4
(g8
S'\xe9\xc7\\\x8ew\x19\xf0?'
p394
tp395
Rp396
sS'id'
p397
I17727
sS'name'
p398
S"Elizabeth Taylor: The Last Time I Saw Paris/Father's Little Dividend (1954)"
p399
ssI17728
(dp400
S'data_time'
p401
F0.8193399906158447
sS'r2'
p402
g4
(g8
S'\xdca\xc7L\xd5G\xd4\xbf'
p403
tp404
Rp405
sS'regr_time'
p406
F10.820884943008423
sS'mse'
p407
g4
(g8
S'\x80\xabD]\xf0\xe9\xfa?'
p408
tp409
Rp410
sS'id'
p411
I17728
sS'name'
p412
S'Me & Isaac Newton (2000)'
p413
ssI17729
(dp414
S'data_time'
p415
F12.191052198410034
sS'r2'
p416
g4
(g8
S'\x00\xe9N)\x803\x85\xbf'
p417
tp418
Rp419
sS'regr_time'
p420
F9.111398935317993
sS'mse'
p421
g4
(g8
S"\xfb0'D\x01\xf0\xf2?"
p422
tp423
Rp424
sS'id'
p425
I17729
sS'name'
p426
S'Icebreaker (1999)'
p427
ssI17730
(dp428
S'data_time'
p429
F5.975422143936157
sS'r2'
p430
g4
(g8
S'X\xa8diw"\xc3?'
p431
tp432
Rp433
sS'regr_time'
p434
F61.765079975128174
sS'mse'
p435
g4
(g8
S'x\x1dG\xe2R\xed\xe6?'
p436
tp437
Rp438
sS'id'
p439
I17730
sS'name'
p440
S'The Blob (1958)'
p441
ssI17731
(dp442
S'data_time'
p443
F1.609278917312622
sS'r2'
p444
g4
(g8
S'P\x0c\x1d\xcf\xc1\x13\xb4?'
p445
tp446
Rp447
sS'regr_time'
p448
F8.545768976211548
sS'mse'
p449
g4
(g8
S'\x12\xa2\xc7\xe2\xbc\xde\xd6?'
p450
tp451
Rp452
sS'id'
p453
I17731
sS'name'
p454
S'Death Mask (1998)'
p455
ssI17732
(dp456
S'data_time'
p457
F3.748157024383545
sS'r2'
p458
g4
(g8
S'b\t\x8f<\xab\xbd\xea\xbf'
p459
tp460
Rp461
sS'regr_time'
p462
F65.31982398033142
sS'mse'
p463
g4
(g8
S'\x9bN\xb1GCP\xf7?'
p464
tp465
Rp466
sS'id'
p467
I17732
sS'name'
p468
S'Open City (1945)'
p469
ssI17733
(dp470
S'data_time'
p471
F4.874642848968506
sS'r2'
p472
g4
(g8
S'\xb0 \xb7X\xac(\xb0\xbf'
p473
tp474
Rp475
sS'regr_time'
p476
F18.23385190963745
sS'mse'
p477
g4
(g8
S'\t\x99$\x983\x8d\xf4?'
p478
tp479
Rp480
sS'id'
p481
I17733
sS'name'
p482
S'13th Child: Legend of the Jersey Devil (2002)'
p483
ssI17734
(dp484
S'data_time'
p485
F0.6838879585266113
sS'r2'
p486
g4
(g8
S'\xf0\xc2.\xc8\xa9b\xa5?'
p487
tp488
Rp489
sS'regr_time'
p490
F11.165585994720459
sS'mse'
p491
g4
(g8
S'\xed\x83\x0c1\x81\xd8\xed?'
p492
tp493
Rp494
sS'id'
p495
I17734
sS'name'
p496
S'Shanghai Ghetto (2002)'
p497
ssI17735
(dp498
S'data_time'
p499
F2.7591519355773926
sS'r2'
p500
g4
(g8
S'P\xa3d\xb1\x02\x84\xa0?'
p501
tp502
Rp503
sS'regr_time'
p504
F3.283574104309082
sS'mse'
p505
g4
(g8
S'\x12\x7fL\xda\xc7\x18\xfb?'
p506
tp507
Rp508
sS'id'
p509
I17735
sS'name'
p510
S'Type O Negative: After Dark (1998)'
p511
ssI17736
(dp512
S'data_time'
p513
F1.7040209770202637
sS'r2'
p514
g4
(g8
S' \xc9\xe0&\xe1\xb0\xc6\xbf'
p515
tp516
Rp517
sS'regr_time'
p518
F13.012058019638062
sS'mse'
p519
g4
(g8
S'\xa6\xfb\x11d\xb8$\xf8?'
p520
tp521
Rp522
sS'id'
p523
I17736
sS'name'
p524
S'Reptilian (1999)'
p525
ssI17737
(dp526
S'data_time'
p527
F1.537086009979248
sS'r2'
p528
g4
(g8
S'p\xe2\xe4\xfd\xf6]\xcf\xbf'
p529
tp530
Rp531
sS'regr_time'
p532
F14.70686388015747
sS'mse'
p533
g4
(g8
S'3\x10p\x00[\xe7\x00@'
p534
tp535
Rp536
sS'id'
p537
I17737
sS'name'
p538
S'Frank Zappa: Does Humor Belong in Music? (1985)'
p539
ssI17738
(dp540
S'data_time'
p541
F1.30216383934021
sS'r2'
p542
g4
(g8
S'\xb4\xeeL-]^\xec\xbf'
p543
tp544
Rp545
sS'regr_time'
p546
F40.81144189834595
sS'mse'
p547
g4
(g8
S'\xc0]I!\x18u\t@'
p548
tp549
Rp550
sS'id'
p551
I17738
sS'name'
p552
S'Henry Rollins: Live at Luna Park (2004)'
p553
ssI17739
(dp554
S'data_time'
p555
F3.086143970489502
sS'r2'
p556
g4
(g8
S'(~\x80a\x03%\xd6\xbf'
p557
tp558
Rp559
sS'regr_time'
p560
F20.3992121219635
sS'mse'
p561
g4
(g8
S'l\xd4\xdft\xb7\x98\xf4?'
p562
tp563
Rp564
sS'id'
p565
I17739
sS'name'
p566
S'Dracula / The Strange Case of Dr. Jekyll and Mr. Hyde (1968)'
p567
ssI17740
(dp568
S'data_time'
p569
F3.9457590579986572
sS'r2'
p570
g4
(g8
S'\xf0\xe8\xad2\xa2}\xbb\xbf'
p571
tp572
Rp573
sS'regr_time'
p574
F69.84249997138977
sS'mse'
p575
g4
(g8
S'3\xd3\x85\x05\xf5\\\xf2?'
p576
tp577
Rp578
sS'id'
p579
I17740
sS'name'
p580
S'Shoot the Piano Player (1960)'
p581
ssI17741
(dp582
S'data_time'
p583
F3.3845608234405518
sS'r2'
p584
g4
(g8
S'4\xfc\xc2%y\xea\xc1?'
p585
tp586
Rp587
sS'regr_time'
p588
F60.528403997421265
sS'mse'
p589
g4
(g8
S'\xca\xf4\xb6\xeb\xd3\xb3\xee?'
p590
tp591
Rp592
sS'id'
p593
I17741
sS'name'
p594
S'Ginger Snaps 2: Unleashed (2004)'
p595
ssI17742
(dp596
S'data_time'
p597
F2.1729719638824463
sS'r2'
p598
g4
(g8
S'\xe45;*\xf9\xc8\xe4\xbf'
p599
tp600
Rp601
sS'regr_time'
p602
F43.6984429359436
sS'mse'
p603
g4
(g8
S']\t\xc3\x99\xc0\x81\xf6?'
p604
tp605
Rp606
sS'id'
p607
I17742
sS'name'
p608
S'Catherine the Great (1995)'
p609
ssI17743
(dp610
S'data_time'
p611
F5.601326942443848
sS'r2'
p612
g4
(g8
S'\x80\xdd(\xc3\xe6\x15\xc8\xbf'
p613
tp614
Rp615
sS'regr_time'
p616
F51.41332197189331
sS'mse'
p617
g4
(g8
S'Q$\x87\x04c\xe5\xf5?'
p618
tp619
Rp620
sS'id'
p621
I17743
sS'name'
p622
S'Better Luck Tomorrow (2003)'
p623
ssI17744
(dp624
S'data_time'
p625
F0.9383289813995361
sS'r2'
p626
g4
(g8
S'@\xbf@u\x1al\xb5?'
p627
tp628
Rp629
sS'regr_time'
p630
F11.835587978363037
sS'mse'
p631
g4
(g8
S'\x90\xd12t\xb2_\x00@'
p632
tp633
Rp634
sS'id'
p635
I17744
sS'name'
p636
S'NASCAR: Tony Stewart Smoke (2004)'
p637
ssI17745
(dp638
S'data_time'
p639
F1.9352960586547852
sS'r2'
p640
g4
(g8
S'@A\xf5\xb8wy\x99?'
p641
tp642
Rp643
sS'regr_time'
p644
F28.87058186531067
sS'mse'
p645
g4
(g8
S'\xd9\x94N\xf5\xb1\x18\xf8?'
p646
tp647
Rp648
sS'id'
p649
I17745
sS'name'
p650
S'Russell Simmons Presents Def Poetry: Season 1 (2002)'
p651
ssI17746
(dp652
S'data_time'
p653
F2.152273178100586
sS'r2'
p654
g4
(g8
S'\x00\xd4\x1e\x15b\xb9\xb1\xbf'
p655
tp656
Rp657
sS'regr_time'
p658
F24.922168970108032
sS'mse'
p659
g4
(g8
S'z.\x1d\xdc\x06\x90\xf4?'
p660
tp661
Rp662
sS'id'
p663
I17746
sS'name'
p664
S'Godzilla & Mothra: Battle for Earth / Vs. King Ghidora (1991)'
p665
ssI17747
(dp666
S'data_time'
p667
F17.197944164276123
sS'r2'
p668
g4
(g8
S'\xa0\xc5\xc6K\x10D\xb5\xbf'
p669
tp670
Rp671
sS'regr_time'
p672
F21.452529907226562
sS'mse'
p673
g4
(g8
S'\x80\xe4\xfbe\xd3\xcb\xf9?'
p674
tp675
Rp676
sS'id'
p677
I17747
sS'name'
p678
S'Eric Clapton: 24 Nights (1991)'
p679
ssI17748
(dp680
S'data_time'
p681
F1.0031349658966064
sS'r2'
p682
g4
(g8
S'\x80\xb9\xff\xba=\xe2\x86\xbf'
p683
tp684
Rp685
sS'regr_time'
p686
F2.7759292125701904
sS'mse'
p687
g4
(g8
S'\x9f\x81sPD\xef\xfc?'
p688
tp689
Rp690
sS'id'
p691
I17748
sS'name'
p692
S'Dog the Bounty Hunter: The Best of Season 1 (2005)'
p693
ssI17749
(dp694
S'data_time'
p695
F0.6696391105651855
sS'r2'
p696
g4
(g8
S'\x00\xb0\xdfi\xdd<\xc7\xbf'
p697
tp698
Rp699
sS'regr_time'
p700
F0.06672310829162598
sS'mse'
p701
g4
(g8
S'\xbcz#\xc2^\x9d\xf2?'
p702
tp703
Rp704
sS'id'
p705
I17749
sS'name'
p706
S'No End (1985)'
p707
ssI17750
(dp708
S'data_time'
p709
F0.83685302734375
sS'r2'
p710
g4
(g8
S'd\x85Y\x04\x1bC\xce?'
p711
tp712
Rp713
sS'regr_time'
p714
F9.5660719871521
sS'mse'
p715
g4
(g8
S'YF;\xf7\\(\x00@'
p716
tp717
Rp718
sS'id'
p719
I17750
sS'name'
p720
S'The Hee Haw Collection: Vol. 4 (2005)'
p721
ssI17751
(dp722
S'data_time'
p723
F2.4173548221588135
sS'r2'
p724
g4
(g8
S'P\xc9\x03\x114\xc4\xd4?'
p725
tp726
Rp727
sS'regr_time'
p728
F66.38529109954834
sS'mse'
p729
g4
(g8
S'\xf3\xef;\xb7\xabZ\xf0?'
p730
tp731
Rp732
sS'id'
p733
I17751
sS'name'
p734
S'Highlander: Season 2 (1993)'
p735
ssI17752
(dp736
S'data_time'
p737
F1.1334319114685059
sS'r2'
p738
g4
(g8
S'\xa0\xaa\xfe\x15s"\xc9\xbf'
p739
tp740
Rp741
sS'regr_time'
p742
F45.805500984191895
sS'mse'
p743
g4
(g8
S'j+D!\xf7Y\xf6?'
p744
tp745
Rp746
sS'id'
p747
I17752
sS'name'
p748
S'Out of Order (2003)'
p749
ssI17753
(dp750
S'data_time'
p751
F8.49642300605774
sS'r2'
p752
g4
(g8
S'\xe04~4\x98\x92\xad\xbf'
p753
tp754
Rp755
sS'regr_time'
p756
F12.850625038146973
sS'mse'
p757
g4
(g8
S'\x9c\xe4\x8b\xa1\x93\xf3\xf7?'
p758
tp759
Rp760
sS'id'
p761
I17753
sS'name'
p762
S'Maslin Beach (1997)'
p763
ssI17754
(dp764
S'data_time'
p765
F1.0795280933380127
sS'r2'
p766
g4
(g8
S'\xa0\n\xa1\x9b0x\xaa\xbf'
p767
tp768
Rp769
sS'regr_time'
p770
F27.26355791091919
sS'mse'
p771
g4
(g8
S'\xb12\xe8uP\x02\xfe?'
p772
tp773
Rp774
sS'id'
p775
I17754
sS'name'
p776
S'On the Ropes (1999)'
p777
ssI17755
(dp778
S'data_time'
p779
F1.1683971881866455
sS'r2'
p780
g4
(g8
S'p\x87\xb25\x85\xd5\xc6?'
p781
tp782
Rp783
sS'regr_time'
p784
F7.411279916763306
sS'mse'
p785
g4
(g8
S'0\xb2\xd2\xb1\xdc+\xf4?'
p786
tp787
Rp788
sS'id'
p789
I17755
sS'name'
p790
S'L/R: Licensed by Royalty (2003)'
p791
ssI17756
(dp792
S'data_time'
p793
F1.233933925628662
sS'r2'
p794
g4
(g8
S'\x18\xf9"N=\x99\xca\xbf'
p795
tp796
Rp797
sS'regr_time'
p798
F36.99662780761719
sS'mse'
p799
g4
(g8
S'\xd1L\xdb:A%\xf2?'
p800
tp801
Rp802
sS'id'
p803
I17756
sS'name'
p804
S'The 39 Steps (1935)'
p805
ssI17757
(dp806
S'data_time'
p807
F2.085965871810913
sS'r2'
p808
g4
(g8
S'\xbc;Y\xe8R\xb9\xe4\xbf'
p809
tp810
Rp811
sS'regr_time'
p812
F29.600219011306763
sS'mse'
p813
g4
(g8
S'>\xd4\xce\xeej\xc4\xf9?'
p814
tp815
Rp816
sS'id'
p817
I17757
sS'name'
p818
S'Ulysses S. Grant: Warrior / President: American Experience (2002)'
p819
ssI17758
(dp820
S'data_time'
p821
F26.448967933654785
sS'r2'
p822
g4
(g8
S'4F3p\xb8\x8b\xc1?'
p823
tp824
Rp825
sS'regr_time'
p826
F26.131983041763306
sS'mse'
p827
g4
(g8
S'\xba\xbc\x94XI\x10\xf5?'
p828
tp829
Rp830
sS'id'
p831
I17758
sS'name'
p832
S'Prophecy (1979)'
p833
ssI17759
(dp834
S'data_time'
p835
F1.0353379249572754
sS'r2'
p836
g4
(g8
S'@\x11iPm<\xb2\xbf'
p837
tp838
Rp839
sS'regr_time'
p840
F12.110919952392578
sS'mse'
p841
g4
(g8
S'\xfaQO\xb9\x13\x11\xfa?'
p842
tp843
Rp844
sS'id'
p845
I17759
sS'name'
p846
S'The Big Bird Cage (1972)'
p847
ssI17760
(dp848
S'data_time'
p849
F1.02384614944458
sS'r2'
p850
g4
(g8
S"\x08\x90'\xb1\xa5G\xce\xbf"
p851
tp852
Rp853
sS'regr_time'
p854
F34.72404193878174
sS'mse'
p855
g4
(g8
S'\x98\xa0\x03\xa80u\xf3?'
p856
tp857
Rp858
sS'id'
p859
I17760
sS'name'
p860
S'Lightning Bug (2004)'
p861
ssI17761
(dp862
S'data_time'
p863
F7.187565803527832
sS'r2'
p864
g4
(g8
S'\xc0.e7\xd5L\x8f?'
p865
tp866
Rp867
sS'regr_time'
p868
F51.253762006759644
sS'mse'
p869
g4
(g8
S'\xc4\x04\xb0\x94\x87\xb6\xf0?'
p870
tp871
Rp872
sS'id'
p873
I17761
sS'name'
p874
S'Levity (2003)'
p875
ssI17762
(dp876
S'data_time'
p877
F4.08732008934021
sS'r2'
p878
g4
(g8
S'\xe0&\xa8\x0e\xf9;\xb9\xbf'
p879
tp880
Rp881
sS'regr_time'
p882
F46.351765155792236
sS'mse'
p883
g4
(g8
S'Q;W\x9b\x8c\xbb\xed?'
p884
tp885
Rp886
sS'id'
p887
I17762
sS'name'
p888
S'Gattaca (1997)'
p889
ssI17763
(dp890
S'data_time'
p891
F1.4353058338165283
sS'r2'
p892
g4
(g8
S'\x1c\x7f\xbcR\x0e\x01\xc1?'
p893
tp894
Rp895
sS'regr_time'
p896
F42.57895803451538
sS'mse'
p897
g4
(g8
S'D\xc4\xd8\xf1\xf0\x9b\xf0?'
p898
tp899
Rp900
sS'id'
p901
I17763
sS'name'
p902
S'Interiors (1978)'
p903
ssI17764
(dp904
S'data_time'
p905
F1.7570290565490723
sS'r2'
p906
g4
(g8
S'\xaaX\x03\x18[r\xe9\xbf'
p907
tp908
Rp909
sS'regr_time'
p910
F56.09812593460083
sS'mse'
p911
g4
(g8
S'x\x17>\n*~\xf7?'
p912
tp913
Rp914
sS'id'
p915
I17764
sS'name'
p916
S'Shakespeare in Love (1998)'
p917
ssI17765
(dp918
S'data_time'
p919
F2.2917239665985107
sS'r2'
p920
g4
(g8
S'@EO4\x14f\xb1?'
p921
tp922
Rp923
sS'regr_time'
p924
F11.290398836135864
sS'mse'
p925
g4
(g8
S'\x12_t\xb1\x00$\xf1?'
p926
tp927
Rp928
sS'id'
p929
I17765
sS'name'
p930
S"Godzilla's Revenge (1969)"
p931
ssI17766
(dp932
S'data_time'
p933
F3.0668129920959473
sS'r2'
p934
g4
(g8
S'\x98.\xd2\x9e\x19\x95\xdd\xbf'
p935
tp936
Rp937
sS'regr_time'
p938
F30.647589921951294
sS'mse'
p939
g4
(g8
S'\xa9\xdb\xf2\x99\xb8\x00\xfd?'
p940
tp941
Rp942
sS'id'
p943
I17766
sS'name'
p944
S'Where the Wild Things Are and Other Maurice Sendak Stories (2002)'
p945
ssI17767
(dp946
S'data_time'
p947
F4.670277118682861
sS'r2'
p948
g4
(g8
S'@\xd5\xdf\xddwS\xb5\xbf'
p949
tp950
Rp951
sS'regr_time'
p952
F8.755490064620972
sS'mse'
p953
g4
(g8
S'Q\xc5 \x8b\x9d\x0b\xe8?'
p954
tp955
Rp956
sS'id'
p957
I17767
sS'name'
p958
S'Fidel Castro: American Experience (2004)'
p959
ssI17768
(dp960
S'data_time'
p961
F1.3718080520629883
sS'r2'
p962
g4
(g8
S'\x86d04\xa8\xa4\xdd?'
p963
tp964
Rp965
sS'regr_time'
p966
F31.556360960006714
sS'mse'
p967
g4
(g8
S'\xcd_\x8b\xa7\xdd\x83\xe1?'
p968
tp969
Rp970
sS'id'
p971
I17768
sS'name'
p972
S'Epoch (2000)'
p973
ssI17769
(dp974
S'data_time'
p975
F1.4481720924377441
sS'r2'
p976
g4
(g8
S'\xc0y\xec\xef\xad\xb1\xcb\xbf'
p977
tp978
Rp979
sS'regr_time'
p980
F11.11670708656311
sS'mse'
p981
g4
(g8
S'\x88\x9ei-\xaeR\xf7?'
p982
tp983
Rp984
sS'id'
p985
I17769
sS'name'
p986
S'The Company (2003)'
p987
ssI17770
(dp988
S'data_time'
p989
F1.4417729377746582
sS'r2'
p990
g4
(g8
S'\x80$M\x01z\xfep?'
p991
tp992
Rp993
sS'regr_time'
p994
F13.431116819381714
sS'mse'
p995
g4
(g8
S'\xa8TM\x9a\xa5\xcd\xf3?'
p996
tp997
Rp998
sS'id'
p999
I17770
sS'name'
p1000
S'Alien Hunter (2003)'
p1001
ss.