(dp0
I17700
(dp1
S'data_time'
p2
F0.8061249256134033
sS'r2'
p3
cnumpy.core.multiarray
scalar
p4
(cnumpy
dtype
p5
(S'f8'
p6
I0
I1
tp7
Rp8
(I3
S'<'
p9
NNNI-1
I-1
I0
tp10
bS'\x00\x00\x00\x00\x00\x00\xf0?'
p11
tp12
Rp13
sS'regr_time'
p14
F3.8070762157440186
sS'mse'
p15
g4
(g8
S'\x00\x00\x00\x00\x00\x00\x00\x00'
p16
tp17
Rp18
sS'id'
p19
I17700
sS'name'
p20
S'Mysteries of the Deep: Legendary Shipwrecks: Secrets of the Titanic (1986)'
p21
ssI17701
(dp22
S'data_time'
p23
F1.4093029499053955
sS'r2'
p24
g4
(g8
S'\x96D\xb9^bT\xde?'
p25
tp26
Rp27
sS'regr_time'
p28
F36.56593704223633
sS'mse'
p29
g4
(g8
S'\xca\xdd\xe7\xf8hq\xe8?'
p30
tp31
Rp32
sS'id'
p33
I17701
sS'name'
p34
S'Fellini Satyricon (1969)'
p35
ssI17702
(dp36
S'data_time'
p37
F1.237529993057251
sS'r2'
p38
g4
(g8
S'k\x88w\x8b\x16\xdd\xe0?'
p39
tp40
Rp41
sS'regr_time'
p42
F42.842893838882446
sS'mse'
p43
g4
(g8
S'o\xbd\xa6\x07\x05\xa5\xe2?'
p44
tp45
Rp46
sS'id'
p47
I17702
sS'name'
p48
S'Comic Book: The Movie (2004)'
p49
ssI17703
(dp50
S'data_time'
p51
F1.5177009105682373
sS'r2'
p52
g4
(g8
S'4\xd2\xc1t\x9e{\xca?'
p53
tp54
Rp55
sS'regr_time'
p56
F35.87701606750488
sS'mse'
p57
g4
(g8
S'J"\xfb \xcb\x82\xef?'
p58
tp59
Rp60
sS'id'
p61
I17703
sS'name'
p62
S'Hulk (2003)'
p63
ssI17704
(dp64
S'data_time'
p65
F1.0483629703521729
sS'r2'
p66
g4
(g8
S'.\x11\xee\xe2\xdaF\xe1?'
p67
tp68
Rp69
sS'regr_time'
p70
F51.46920299530029
sS'mse'
p71
g4
(g8
S'\t0,\x7f\xbe-\xe1?'
p72
tp73
Rp74
sS'id'
p75
I17704
sS'name'
p76
S'Taboo (1999)'
p77
ssI17705
(dp78
S'data_time'
p79
F1.4759140014648438
sS'r2'
p80
g4
(g8
S'0\x9d|\xb0:b\xb1\xbf'
p81
tp82
Rp83
sS'regr_time'
p84
F2.257105827331543
sS'mse'
p85
g4
(g8
S'\xba\x08\xfa\x98>\xb3\xf1?'
p86
tp87
Rp88
sS'id'
p89
I17705
sS'name'
p90
S'Evil Alien Conquerors (2002)'
p91
ssI17706
(dp92
S'data_time'
p93
F1.0205209255218506
sS'r2'
p94
g4
(g8
S't9\x9d\xe3\x89\xde\xc3?'
p95
tp96
Rp97
sS'regr_time'
p98
F11.179253101348877
sS'mse'
p99
g4
(g8
S'\rv\x1a\x9a7\xdf\xf4?'
p100
tp101
Rp102
sS'id'
p103
I17706
sS'name'
p104
S'Najica Blitz Tactics (2001)'
p105
ssI17707
(dp106
S'data_time'
p107
F1.2352521419525146
sS'r2'
p108
g4
(g8
S'l%\xb8\x01\xaf1\xc2?'
p109
tp110
Rp111
sS'regr_time'
p112
F33.12462496757507
sS'mse'
p113
g4
(g8
S'\xf1\xb9\x13\xec\xbf\xce\xf3?'
p114
tp115
Rp116
sS'id'
p117
I17707
sS'name'
p118
S'Latter Days (2004)'
p119
ssI17708
(dp120
S'data_time'
p121
F1.7711708545684814
sS'r2'
p122
g4
(g8
S'\x0c\xd6pU\xb8\x1b\xe2?'
p123
tp124
Rp125
sS'regr_time'
p126
F41.948195934295654
sS'mse'
p127
g4
(g8
S'\xe1y\xa9\xd8\x98\xd7\xe1?'
p128
tp129
Rp130
sS'id'
p131
I17708
sS'name'
p132
S'Trembling Before G-d (2001)'
p133
ssI17709
(dp134
S'data_time'
p135
F1.4269940853118896
sS'r2'
p136
g4
(g8
S'\xd4\xbd\xe0D\xf5\xd7\xcd?'
p137
tp138
Rp139
sS'regr_time'
p140
F24.98457908630371
sS'mse'
p141
g4
(g8
S'\xe8\x14\xe4g#\xd7\xe6?'
p142
tp143
Rp144
sS'id'
p145
I17709
sS'name'
p146
S'A River Runs Through It (1992)'
p147
ssI17710
(dp148
S'data_time'
p149
F0.6821539402008057
sS'r2'
p150
g4
(g8
S'pj\x16\x86\xd7\x99\xa4?'
p151
tp152
Rp153
sS'regr_time'
p154
F3.113861083984375
sS'mse'
p155
g4
(g8
S'@;\xba$\xe1U\xf1?'
p156
tp157
Rp158
sS'id'
p159
I17710
sS'name'
p160
S'Going Down (2003)'
p161
ssI17711
(dp162
S'data_time'
p163
F0.984807014465332
sS'r2'
p164
g4
(g8
S'\x00\x1eWuO\x8d\xdd?'
p165
tp166
Rp167
sS'regr_time'
p168
F37.521244049072266
sS'mse'
p169
g4
(g8
S'\x08\x1c\t4\xd8\xd4\xe5?'
p170
tp171
Rp172
sS'id'
p173
I17711
sS'name'
p174
S'The Diary of Ellen Rimbauer (2003)'
p175
ssI17712
(dp176
S'data_time'
p177
F0.8334507942199707
sS'r2'
p178
g4
(g8
S'L\xd8\xcdo!`\xd4?'
p179
tp180
Rp181
sS'regr_time'
p182
F1.5550508499145508
sS'mse'
p183
g4
(g8
S'\xfc\xa9\xf1\xd2Mb\xf9?'
p184
tp185
Rp186
sS'id'
p187
I17712
sS'name'
p188
S'The Doobie Brothers: Live at Wolf Trap (2004)'
p189
ssI17713
(dp190
S'data_time'
p191
F0.6021468639373779
sS'r2'
p192
g4
(g8
S"\xb2>\x9e\x01'\xdf\xde?"
p193
tp194
Rp195
sS'regr_time'
p196
F9.379886865615845
sS'mse'
p197
g4
(g8
S'\xa8\xca}\xba6z\xe9?'
p198
tp199
Rp200
sS'id'
p201
I17713
sS'name'
p202
S'WWE: Summerslam 2004 (2004)'
p203
ssI17714
(dp204
S'data_time'
p205
F1.0034630298614502
sS'r2'
p206
g4
(g8
S'\x9c\xdaw\x1e]\xb2\xc3?'
p207
tp208
Rp209
sS'regr_time'
p210
F27.94090509414673
sS'mse'
p211
g4
(g8
S',k\x9b\xe2q\xd1\xf3?'
p212
tp213
Rp214
sS'id'
p215
I17714
sS'name'
p216
S'The Little Mermaid (1989)'
p217
ssI17715
(dp218
S'data_time'
p219
F1.0532550811767578
sS'r2'
p220
g4
(g8
S'\x16\x1fZ\xa0\xb8<\xe4?'
p221
tp222
Rp223
sS'regr_time'
p224
F49.23628497123718
sS'mse'
p225
g4
(g8
S'\x81\xd1\xe5\xcd\xe1Z\xe0?'
p226
tp227
Rp228
sS'id'
p229
I17715
sS'name'
p230
S'The Adventures of Ma and Pa Kettle: Vol. 1 (1947)'
p231
ssI17716
(dp232
S'data_time'
p233
F2.3599038124084473
sS'r2'
p234
g4
(g8
S'\x12\x80\xb0\xea\x0f\xf0\xda?'
p235
tp236
Rp237
sS'regr_time'
p238
F44.12292504310608
sS'mse'
p239
g4
(g8
S'\xa4\xa83\xf7\x90\xf0\xe4?'
p240
tp241
Rp242
sS'id'
p243
I17716
sS'name'
p244
S'Some Folks Call it a Sling Blade (1993)'
p245
ssI17717
(dp246
S'data_time'
p247
F1.363736867904663
sS'r2'
p248
g4
(g8
S'\xba\xac\xb9\x9d\xcb{\xdf?'
p249
tp250
Rp251
sS'regr_time'
p252
F4.778462886810303
sS'mse'
p253
g4
(g8
S'Ej\xda\xc54\xd3\xe5?'
p254
tp255
Rp256
sS'id'
p257
I17717
sS'name'
p258
S'Sol Bianca: The Legacy: Vol. 3: Going Home (1991)'
p259
ssI17718
(dp260
S'data_time'
p261
F0.6620628833770752
sS'r2'
p262
g4
(g8
S'x\xf4F}\xbb\xe6\xbe?'
p263
tp264
Rp265
sS'regr_time'
p266
F2.4891438484191895
sS'mse'
p267
g4
(g8
S'\xeb\x07b\xc6\x01\xe1\xf1?'
p268
tp269
Rp270
sS'id'
p271
I17718
sS'name'
p272
S'The Delta (1996)'
p273
ssI17719
(dp274
S'data_time'
p275
F0.690284013748169
sS'r2'
p276
g4
(g8
S'\x80\xe9\xd9\xf6\\\xd8\xb8?'
p277
tp278
Rp279
sS'regr_time'
p280
F4.105297803878784
sS'mse'
p281
g4
(g8
S'F\xca\x13\x0e\xb1\xd9\xf4?'
p282
tp283
Rp284
sS'id'
p285
I17719
sS'name'
p286
S'The Europeans (1979)'
p287
ssI17720
(dp288
S'data_time'
p289
F0.6067090034484863
sS'r2'
p290
g4
(g8
S'h\xdd\x88\xe6>m\xbd?'
p291
tp292
Rp293
sS'regr_time'
p294
F1.6836929321289062
sS'mse'
p295
g4
(g8
S'\xd50m\x1d\x19\xb1\xf3?'
p296
tp297
Rp298
sS'id'
p299
I17720
sS'name'
p300
S'Pirates of the Plain (1999)'
p301
ssI17721
(dp302
S'data_time'
p303
F0.5759210586547852
sS'r2'
p304
g4
(g8
S'\x10\x86\xad\xaa\x91\xe3\xc3?'
p305
tp306
Rp307
sS'regr_time'
p308
F12.677422046661377
sS'mse'
p309
g4
(g8
S'q\xda\xfavA\xbc\xf1?'
p310
tp311
Rp312
sS'id'
p313
I17721
sS'name'
p314
S'The Love Letter (1998)'
p315
ssI17722
(dp316
S'data_time'
p317
F1.0187551975250244
sS'r2'
p318
g4
(g8
S'\x00\xe5\x18\x05\x10\xa0\xbb?'
p319
tp320
Rp321
sS'regr_time'
p322
F2.7324769496917725
sS'mse'
p323
g4
(g8
S'&\xe1B\x1e\xc1\x8d\xf4?'
p324
tp325
Rp326
sS'id'
p327
I17722
sS'name'
p328
S'Faerie Tale Theatre: The Little Mermaid (1984)'
p329
ssI17723
(dp330
S'data_time'
p331
F0.8736240863800049
sS'r2'
p332
g4
(g8
S"h'\x9c\xdc:\xfc\xce?"
p333
tp334
Rp335
sS'regr_time'
p336
F38.13937497138977
sS'mse'
p337
g4
(g8
S'od\x1e\xf9\x83\x81\xe8?'
p338
tp339
Rp340
sS'id'
p341
I17723
sS'name'
p342
S'Redemption (2004)'
p343
ssI17724
(dp344
S'data_time'
p345
F1.3510148525238037
sS'r2'
p346
g4
(g8
S'P]s\x17w\xed\xb5?'
p347
tp348
Rp349
sS'regr_time'
p350
F42.44435501098633
sS'mse'
p351
g4
(g8
S'\x1fj\xdb0\n\x82\xea?'
p352
tp353
Rp354
sS'id'
p355
I17724
sS'name'
p356
S'Gettysburg (1993)'
p357
ssI17725
(dp358
S'data_time'
p359
F0.9554460048675537
sS'r2'
p360
g4
(g8
S'\xe0(\x8b\x86\xe9P\xbb?'
p361
tp362
Rp363
sS'regr_time'
p364
F39.46131110191345
sS'mse'
p365
g4
(g8
S'E\xf6A\x96\x05\x13\xed?'
p366
tp367
Rp368
sS'id'
p369
I17725
sS'name'
p370
S"Jerry Seinfeld: I'm Telling You for the Last Time (1999)"
p371
ssI17726
(dp372
S'data_time'
p373
F0.8437719345092773
sS'r2'
p374
g4
(g8
S'\xd0#t\x84\xae\x8b\xc8?'
p375
tp376
Rp377
sS'regr_time'
p378
F36.393062114715576
sS'mse'
p379
g4
(g8
S'\xce\xd8>q/(\xf8?'
p380
tp381
Rp382
sS'id'
p383
I17726
sS'name'
p384
S'Cats (1998)'
p385
ssI17727
(dp386
S'data_time'
p387
F1.8337738513946533
sS'r2'
p388
g4
(g8
S"\xa6\xd4?'\xcdj\xd4?"
p389
tp390
Rp391
sS'regr_time'
p392
F9.560559034347534
sS'mse'
p393
g4
(g8
S'\x96\x0e\xd6\xff9\xcc\xe7?'
p394
tp395
Rp396
sS'id'
p397
I17727
sS'name'
p398
S"Elizabeth Taylor: The Last Time I Saw Paris/Father's Little Dividend (1954)"
p399
ssI17728
(dp400
S'data_time'
p401
F0.7164227962493896
sS'r2'
p402
g4
(g8
S'\x00\x99\x97\xf1\x8e#\x81\xbf'
p403
tp404
Rp405
sS'regr_time'
p406
F4.937247037887573
sS'mse'
p407
g4
(g8
S'I1-\xd7\xc8\x9b\xf4?'
p408
tp409
Rp410
sS'id'
p411
I17728
sS'name'
p412
S'Me & Isaac Newton (2000)'
p413
ssI17729
(dp414
S'data_time'
p415
F0.805189847946167
sS'r2'
p416
g4
(g8
S'\xf0\xb3"]t\xdf\xb7\xbf'
p417
tp418
Rp419
sS'regr_time'
p420
F3.028548002243042
sS'mse'
p421
g4
(g8
S'f\x89\x1d\xef\xca}\xf4?'
p422
tp423
Rp424
sS'id'
p425
I17729
sS'name'
p426
S'Icebreaker (1999)'
p427
ssI17730
(dp428
S'data_time'
p429
F1.2510359287261963
sS'r2'
p430
g4
(g8
S'\x9en\xa9\x87$u\xd5?'
p431
tp432
Rp433
sS'regr_time'
p434
F49.9100878238678
sS'mse'
p435
g4
(g8
S'\xb3E\xd2n\xf41\xe3?'
p436
tp437
Rp438
sS'id'
p439
I17730
sS'name'
p440
S'The Blob (1958)'
p441
ssI17731
(dp442
S'data_time'
p443
F0.776137113571167
sS'r2'
p444
g4
(g8
S'\x10A\x87\xea\xcb\xcf\xc3\xbf'
p445
tp446
Rp447
sS'regr_time'
p448
F1.6463158130645752
sS'mse'
p449
g4
(g8
S'\x01\ns~I\xa8\xdc?'
p450
tp451
Rp452
sS'id'
p453
I17731
sS'name'
p454
S'Death Mask (1998)'
p455
ssI17732
(dp456
S'data_time'
p457
F1.4278521537780762
sS'r2'
p458
g4
(g8
S'\xc8\x9eX\xaf\xbd\xa9\xb9?'
p459
tp460
Rp461
sS'regr_time'
p462
F43.84876298904419
sS'mse'
p463
g4
(g8
S"\xfd\x9b\x17'\xbe\xda\xe6?"
p464
tp465
Rp466
sS'id'
p467
I17732
sS'name'
p468
S'Open City (1945)'
p469
ssI17733
(dp470
S'data_time'
p471
F1.0757291316986084
sS'r2'
p472
g4
(g8
S'$0\x80\xbe\xb8Q\xc2?'
p473
tp474
Rp475
sS'regr_time'
p476
F6.785516977310181
sS'mse'
p477
g4
(g8
S'\xdbk\xb5\xaa\x8e\x90\xf0?'
p478
tp479
Rp480
sS'id'
p481
I17733
sS'name'
p482
S'13th Child: Legend of the Jersey Devil (2002)'
p483
ssI17734
(dp484
S'data_time'
p485
F0.7814300060272217
sS'r2'
p486
g4
(g8
S'\xc4\xf6\xa7\x99?\x81\xcd?'
p487
tp488
Rp489
sS'regr_time'
p490
F2.655616044998169
sS'mse'
p491
g4
(g8
S'\xce\xc4\x87\xec\x96\xf7\xe7?'
p492
tp493
Rp494
sS'id'
p495
I17734
sS'name'
p496
S'Shanghai Ghetto (2002)'
p497
ssI17735
(dp498
S'data_time'
p499
F0.7020668983459473
sS'r2'
p500
g4
(g8
S'\x84\xe7\xde\xc3%\xc7\xcd?'
p501
tp502
Rp503
sS'regr_time'
p504
F1.6781060695648193
sS'mse'
p505
g4
(g8
S"[='\xbdo|\xf5?"
p506
tp507
Rp508
sS'id'
p509
I17735
sS'name'
p510
S'Type O Negative: After Dark (1998)'
p511
ssI17736
(dp512
S'data_time'
p513
F0.5995290279388428
sS'r2'
p514
g4
(g8
S'\xfct{\x97\xbb\x02\xd7?'
p515
tp516
Rp517
sS'regr_time'
p518
F6.113945007324219
sS'mse'
p519
g4
(g8
S'/_0\x10\xdaD\xea?'
p520
tp521
Rp522
sS'id'
p523
I17736
sS'name'
p524
S'Reptilian (1999)'
p525
ssI17737
(dp526
S'data_time'
p527
F0.7096819877624512
sS'r2'
p528
g4
(g8
S'H\x10 \x92\x9c.\xc8?'
p529
tp530
Rp531
sS'regr_time'
p532
F6.866944074630737
sS'mse'
p533
g4
(g8
S'$\xb0mR\x04\x06\xf6?'
p534
tp535
Rp536
sS'id'
p537
I17737
sS'name'
p538
S'Frank Zappa: Does Humor Belong in Music? (1985)'
p539
ssI17738
(dp540
S'data_time'
p541
F1.1049749851226807
sS'r2'
p542
g4
(g8
S'\x8c\xb6\xddv\xf9\x94\xc5?'
p543
tp544
Rp545
sS'regr_time'
p546
F30.449544191360474
sS'mse'
p547
g4
(g8
S'\\"n\xa5.p\xf6?'
p548
tp549
Rp550
sS'id'
p551
I17738
sS'name'
p552
S'Henry Rollins: Live at Luna Park (2004)'
p553
ssI17739
(dp554
S'data_time'
p555
F2.9086101055145264
sS'r2'
p556
g4
(g8
S'J\xd1\xe3{;\x01\xd1?'
p557
tp558
Rp559
sS'regr_time'
p560
F4.662698030471802
sS'mse'
p561
g4
(g8
S'\x98\xfe\n\x96\xf0x\xe6?'
p562
tp563
Rp564
sS'id'
p565
I17739
sS'name'
p566
S'Dracula / The Strange Case of Dr. Jekyll and Mr. Hyde (1968)'
p567
ssI17740
(dp568
S'data_time'
p569
F0.9492220878601074
sS'r2'
p570
g4
(g8
S'\xf7BL\x11\x85\xea\xe1?'
p571
tp572
Rp573
sS'regr_time'
p574
F27.255025148391724
sS'mse'
p575
g4
(g8
S'\xad\x15m\x8es\x9b\xdc?'
p576
tp577
Rp578
sS'id'
p579
I17740
sS'name'
p580
S'Shoot the Piano Player (1960)'
p581
ssI17741
(dp582
S'data_time'
p583
F1.149245023727417
sS'r2'
p584
g4
(g8
S'B\xd09\xe0P\xac\xdb?'
p585
tp586
Rp587
sS'regr_time'
p588
F40.20835018157959
sS'mse'
p589
g4
(g8
S'\x01\x8d\xd2\xa5\x7fI\xe5?'
p590
tp591
Rp592
sS'id'
p593
I17741
sS'name'
p594
S'Ginger Snaps 2: Unleashed (2004)'
p595
ssI17742
(dp596
S'data_time'
p597
F0.8573620319366455
sS'r2'
p598
g4
(g8
S'\x80\xe9\xffF\xdd{}?'
p599
tp600
Rp601
sS'regr_time'
p602
F37.47518992424011
sS'mse'
p603
g4
(g8
S'J\xc4\x94H\xa2\x17\xeb?'
p604
tp605
Rp606
sS'id'
p607
I17742
sS'name'
p608
S'Catherine the Great (1995)'
p609
ssI17743
(dp610
S'data_time'
p611
F1.5951259136199951
sS'r2'
p612
g4
(g8
S'\xcc\xa9={\xfe\x1e\xca?'
p613
tp614
Rp615
sS'regr_time'
p616
F39.68004393577576
sS'mse'
p617
g4
(g8
S'\x1c\x10!\xae\x9c\xbd\xea?'
p618
tp619
Rp620
sS'id'
p621
I17743
sS'name'
p622
S'Better Luck Tomorrow (2003)'
p623
ssI17744
(dp624
S'data_time'
p625
F0.9234979152679443
sS'r2'
p626
g4
(g8
S'pii\x16#\x02\xca?'
p627
tp628
Rp629
sS'regr_time'
p630
F3.9424288272857666
sS'mse'
p631
g4
(g8
S'0P\xfa\xee\x00z\xfc?'
p632
tp633
Rp634
sS'id'
p635
I17744
sS'name'
p636
S'NASCAR: Tony Stewart Smoke (2004)'
p637
ssI17745
(dp638
S'data_time'
p639
F0.633699893951416
sS'r2'
p640
g4
(g8
S'\xf2OZ\xb9\xf8\xa3\xd5?'
p641
tp642
Rp643
sS'regr_time'
p644
F20.311094999313354
sS'mse'
p645
g4
(g8
S'P]^\x8d\x04[\xf0?'
p646
tp647
Rp648
sS'id'
p649
I17745
sS'name'
p650
S'Russell Simmons Presents Def Poetry: Season 1 (2002)'
p651
ssI17746
(dp652
S'data_time'
p653
F1.1778111457824707
sS'r2'
p654
g4
(g8
S'\xba\xee\x01\xf5\xe70\xda?'
p655
tp656
Rp657
sS'regr_time'
p658
F42.91987109184265
sS'mse'
p659
g4
(g8
S' \x0c\x8d\xe1\xdf\xb8\xe6?'
p660
tp661
Rp662
sS'id'
p663
I17746
sS'name'
p664
S'Godzilla & Mothra: Battle for Earth / Vs. King Ghidora (1991)'
p665
ssI17747
(dp666
S'data_time'
p667
F0.9690999984741211
sS'r2'
p668
g4
(g8
S'\xb0k\xea\x7f\xe6R\xd8?'
p669
tp670
Rp671
sS'regr_time'
p672
F28.011026859283447
sS'mse'
p673
g4
(g8
S'\x91\x1e\xd10\xf3\x87\xed?'
p674
tp675
Rp676
sS'id'
p677
I17747
sS'name'
p678
S'Eric Clapton: 24 Nights (1991)'
p679
ssI17748
(dp680
S'data_time'
p681
F0.838266134262085
sS'r2'
p682
g4
(g8
S'\xf0\xa8"d\xf7\x83\xd3?'
p683
tp684
Rp685
sS'regr_time'
p686
F11.391341924667358
sS'mse'
p687
g4
(g8
S'\x0b\xb6\x8f\xd8\xad\xe3\xf3?'
p688
tp689
Rp690
sS'id'
p691
I17748
sS'name'
p692
S'Dog the Bounty Hunter: The Best of Season 1 (2005)'
p693
ssI17749
(dp694
S'data_time'
p695
F0.8080220222473145
sS'r2'
p696
g4
(g8
S'\x80^(\x03Z6\x92\xbf'
p697
tp698
Rp699
sS'regr_time'
p700
F3.3236920833587646
sS'mse'
p701
g4
(g8
S'\x08\xaa\xfd\x86\xe6\x08\xf0?'
p702
tp703
Rp704
sS'id'
p705
I17749
sS'name'
p706
S'No End (1985)'
p707
ssI17750
(dp708
S'data_time'
p709
F0.6729052066802979
sS'r2'
p710
g4
(g8
S'z7>ym\x16\xdb?'
p711
tp712
Rp713
sS'regr_time'
p714
F1.719106912612915
sS'mse'
p715
g4
(g8
S'\xbdy5\xf1\xach\xf8?'
p716
tp717
Rp718
sS'id'
p719
I17750
sS'name'
p720
S'The Hee Haw Collection: Vol. 4 (2005)'
p721
ssI17751
(dp722
S'data_time'
p723
F1.970776081085205
sS'r2'
p724
g4
(g8
S"'\x80\x08\xf38\x16\xe6?"
p725
tp726
Rp727
sS'regr_time'
p728
F36.32907700538635
sS'mse'
p729
g4
(g8
S'{\xf1E{\xbc\x90\xda?'
p730
tp731
Rp732
sS'id'
p733
I17751
sS'name'
p734
S'Highlander: Season 2 (1993)'
p735
ssI17752
(dp736
S'data_time'
p737
F1.187258005142212
sS'r2'
p738
g4
(g8
S'\x18\xfe\x83\x90\xff\xe0\xb3?'
p739
tp740
Rp741
sS'regr_time'
p742
F30.6426739692688
sS'mse'
p743
g4
(g8
S'\xae\xa9DNg;\xf1?'
p744
tp745
Rp746
sS'id'
p747
I17752
sS'name'
p748
S'Out of Order (2003)'
p749
ssI17753
(dp750
S'data_time'
p751
F0.8167030811309814
sS'r2'
p752
g4
(g8
S' \xfc\xce\xf6\x89n\xaf\xbf'
p753
tp754
Rp755
sS'regr_time'
p756
F4.037883043289185
sS'mse'
p757
g4
(g8
S'\x98\\}-\xa0\x08\xf8?'
p758
tp759
Rp760
sS'id'
p761
I17753
sS'name'
p762
S'Maslin Beach (1997)'
p763
ssI17754
(dp764
S'data_time'
p765
F0.9554431438446045
sS'r2'
p766
g4
(g8
S'\xbe1d\xecv\x80\xd2?'
p767
tp768
Rp769
sS'regr_time'
p770
F12.882182121276855
sS'mse'
p771
g4
(g8
S'\xe7\xb1\x08\xed\xf5H\xf4?'
p772
tp773
Rp774
sS'id'
p775
I17754
sS'name'
p776
S'On the Ropes (1999)'
p777
ssI17755
(dp778
S'data_time'
p779
F0.7388548851013184
sS'r2'
p780
g4
(g8
S"\x8aD8'Yd\xd4?"
p781
tp782
Rp783
sS'regr_time'
p784
F2.570849895477295
sS'mse'
p785
g4
(g8
S'\xea\x1b\xd5*|\xba\xf0?'
p786
tp787
Rp788
sS'id'
p789
I17755
sS'name'
p790
S'L/R: Licensed by Royalty (2003)'
p791
ssI17756
(dp792
S'data_time'
p793
F1.406080961227417
sS'r2'
p794
g4
(g8
S'\xa2Z\xc38\x98\xa7\xd0?'
p795
tp796
Rp797
sS'regr_time'
p798
F36.991010904312134
sS'mse'
p799
g4
(g8
S'`\x90\xf4i\x15\xfd\xe3?'
p800
tp801
Rp802
sS'id'
p803
I17756
sS'name'
p804
S'The 39 Steps (1935)'
p805
ssI17757
(dp806
S'data_time'
p807
F1.1795790195465088
sS'r2'
p808
g4
(g8
S'(X>0\xea\x81\xb9?'
p809
tp810
Rp811
sS'regr_time'
p812
F20.751659870147705
sS'mse'
p813
g4
(g8
S'\x9b\x08\x1b\x9e^)\xec?'
p814
tp815
Rp816
sS'id'
p817
I17757
sS'name'
p818
S'Ulysses S. Grant: Warrior / President: American Experience (2002)'
p819
ssI17758
(dp820
S'data_time'
p821
F1.359792947769165
sS'r2'
p822
g4
(g8
S'\xfa\x0f\xc9\xb7\xfau\xd4?'
p823
tp824
Rp825
sS'regr_time'
p826
F38.68012619018555
sS'mse'
p827
g4
(g8
S'2A\r\xdf\xc2\xba\xeb?'
p828
tp829
Rp830
sS'id'
p831
I17758
sS'name'
p832
S'Prophecy (1979)'
p833
ssI17759
(dp834
S'data_time'
p835
F1.8009350299835205
sS'r2'
p836
g4
(g8
S'(\xd6K\t\xf4(\xca?'
p837
tp838
Rp839
sS'regr_time'
p840
F8.330579042434692
sS'mse'
p841
g4
(g8
S'\xf4?\xe6\xf06\\\xf3?'
p842
tp843
Rp844
sS'id'
p845
I17759
sS'name'
p846
S'The Big Bird Cage (1972)'
p847
ssI17760
(dp848
S'data_time'
p849
F0.912816047668457
sS'r2'
p850
g4
(g8
S'\xe0\xae\xc1Ji\xbb\xa2\xbf'
p851
tp852
Rp853
sS'regr_time'
p854
F16.661942958831787
sS'mse'
p855
g4
(g8
S'D\xb2"%\xa3O\xf0?'
p856
tp857
Rp858
sS'id'
p859
I17760
sS'name'
p860
S'Lightning Bug (2004)'
p861
ssI17761
(dp862
S'data_time'
p863
F1.3191900253295898
sS'r2'
p864
g4
(g8
S'\xfc\xeb\xef\x8e\x801\xc6?'
p865
tp866
Rp867
sS'regr_time'
p868
F36.88246011734009
sS'mse'
p869
g4
(g8
S's{Ic\xb4\x8e\xe5?'
p870
tp871
Rp872
sS'id'
p873
I17761
sS'name'
p874
S'Levity (2003)'
p875
ssI17762
(dp876
S'data_time'
p877
F1.3341360092163086
sS'r2'
p878
g4
(g8
S'\xf0\xee\xd3S\x9e)\xb6?'
p879
tp880
Rp881
sS'regr_time'
p882
F37.02827000617981
sS'mse'
p883
g4
(g8
S'\xcd\x0b\xb0\x8fN]\xec?'
p884
tp885
Rp886
sS'id'
p887
I17762
sS'name'
p888
S'Gattaca (1997)'
p889
ssI17763
(dp890
S'data_time'
p891
F2.345501184463501
sS'r2'
p892
g4
(g8
S'`\x92f\xa5TY\xdc?'
p893
tp894
Rp895
sS'regr_time'
p896
F34.60456204414368
sS'mse'
p897
g4
(g8
S'InM\xba-\x91\xe5?'
p898
tp899
Rp900
sS'id'
p901
I17763
sS'name'
p902
S'Interiors (1978)'
p903
ssI17764
(dp904
S'data_time'
p905
F1.5973210334777832
sS'r2'
p906
g4
(g8
S'\xa0\x0c4\x97*I\xc0?'
p907
tp908
Rp909
sS'regr_time'
p910
F36.92942976951599
sS'mse'
p911
g4
(g8
S'#\x161\xec0&\xec?'
p912
tp913
Rp914
sS'id'
p915
I17764
sS'name'
p916
S'Shakespeare in Love (1998)'
p917
ssI17765
(dp918
S'data_time'
p919
F0.7703888416290283
sS'r2'
p920
g4
(g8
S'J_\x13\xef\xd0\x97\xd7?'
p921
tp922
Rp923
sS'regr_time'
p924
F8.850780010223389
sS'mse'
p925
g4
(g8
S'\xba%\x9b\xe7\xd78\xe7?'
p926
tp927
Rp928
sS'id'
p929
I17765
sS'name'
p930
S"Godzilla's Revenge (1969)"
p931
ssI17766
(dp932
S'data_time'
p933
F1.1016099452972412
sS'r2'
p934
g4
(g8
S'\x10\x90\x97H|\x01\xb0?'
p935
tp936
Rp937
sS'regr_time'
p938
F26.57516884803772
sS'mse'
p939
g4
(g8
S'\xa8\x9a\xfa)7\x98\xf2?'
p940
tp941
Rp942
sS'id'
p943
I17766
sS'name'
p944
S'Where the Wild Things Are and Other Maurice Sendak Stories (2002)'
p945
ssI17767
(dp946
S'data_time'
p947
F0.8134751319885254
sS'r2'
p948
g4
(g8
S"\x80\t-\x8f,'\x9e?"
p949
tp950
Rp951
sS'regr_time'
p952
F3.8377959728240967
sS'mse'
p953
g4
(g8
S'l0\xb9/\xef\x8a\xe5?'
p954
tp955
Rp956
sS'id'
p957
I17767
sS'name'
p958
S'Fidel Castro: American Experience (2004)'
p959
ssI17768
(dp960
S'data_time'
p961
F1.1463069915771484
sS'r2'
p962
g4
(g8
S'\xa67D\x84\xaf\xf2\xe3?'
p963
tp964
Rp965
sS'regr_time'
p966
F35.44770693778992
sS'mse'
p967
g4
(g8
S'X\xc6\x86n\xf6\x07\xd8?'
p968
tp969
Rp970
sS'id'
p971
I17768
sS'name'
p972
S'Epoch (2000)'
p973
ssI17769
(dp974
S'data_time'
p975
F1.3274989128112793
sS'r2'
p976
g4
(g8
S'`y9\xde\xc9\xa5\xc4?'
p977
tp978
Rp979
sS'regr_time'
p980
F31.33559012413025
sS'mse'
p981
g4
(g8
S'\x89A`\xe5\xd0"\xeb?'
p982
tp983
Rp984
sS'id'
p985
I17769
sS'name'
p986
S'The Company (2003)'
p987
ssI17770
(dp988
S'data_time'
p989
F0.7531929016113281
sS'r2'
p990
g4
(g8
S'\x00\x00\x00\x00\x00\x00\xf0?'
p991
tp992
Rp993
sS'regr_time'
p994
F3.38266921043396
sS'mse'
p995
g4
(g8
S'\x00\x00\x00\x00\x00\x00\x00\x00'
p996
tp997
Rp998
sS'id'
p999
I17770
sS'name'
p1000
S'Alien Hunter (2003)'
p1001
ss.